
kernel/kernel:     file format elf64-littleriscv


Disassembly of section .text:

0000000080000000 <_entry>:
    80000000:	00009117          	auipc	sp,0x9
    80000004:	18010113          	addi	sp,sp,384 # 80009180 <stack0>
    80000008:	6505                	lui	a0,0x1
    8000000a:	f14025f3          	csrr	a1,mhartid
    8000000e:	0585                	addi	a1,a1,1
    80000010:	02b50533          	mul	a0,a0,a1
    80000014:	912a                	add	sp,sp,a0
    80000016:	078000ef          	jal	ra,8000008e <start>

000000008000001a <spin>:
    8000001a:	a001                	j	8000001a <spin>

000000008000001c <timerinit>:
// which arrive at timervec in kernelvec.S,
// which turns them into software interrupts for
// devintr() in trap.c.
void
timerinit()
{
    8000001c:	1141                	addi	sp,sp,-16
    8000001e:	e422                	sd	s0,8(sp)
    80000020:	0800                	addi	s0,sp,16
// which hart (core) is this?
static inline uint64
r_mhartid()
{
  uint64 x;
  asm volatile("csrr %0, mhartid" : "=r" (x) );
    80000022:	f14027f3          	csrr	a5,mhartid
  // each CPU has a separate source of timer interrupts.
  int id = r_mhartid();
    80000026:	0007869b          	sext.w	a3,a5

  // ask the CLINT for a timer interrupt.
  int interval = 1000000; // cycles; about 1/10th second in qemu.
  *(uint64*)CLINT_MTIMECMP(id) = *(uint64*)CLINT_MTIME + interval;
    8000002a:	0037979b          	slliw	a5,a5,0x3
    8000002e:	02004737          	lui	a4,0x2004
    80000032:	97ba                	add	a5,a5,a4
    80000034:	0200c737          	lui	a4,0x200c
    80000038:	ff873583          	ld	a1,-8(a4) # 200bff8 <_entry-0x7dff4008>
    8000003c:	000f4637          	lui	a2,0xf4
    80000040:	24060613          	addi	a2,a2,576 # f4240 <_entry-0x7ff0bdc0>
    80000044:	95b2                	add	a1,a1,a2
    80000046:	e38c                	sd	a1,0(a5)

  // prepare information in scratch[] for timervec.
  // scratch[0..2] : space for timervec to save registers.
  // scratch[3] : address of CLINT MTIMECMP register.
  // scratch[4] : desired interval (in cycles) between timer interrupts.
  uint64 *scratch = &timer_scratch[id][0];
    80000048:	00269713          	slli	a4,a3,0x2
    8000004c:	9736                	add	a4,a4,a3
    8000004e:	00371693          	slli	a3,a4,0x3
    80000052:	00009717          	auipc	a4,0x9
    80000056:	fee70713          	addi	a4,a4,-18 # 80009040 <timer_scratch>
    8000005a:	9736                	add	a4,a4,a3
  scratch[3] = CLINT_MTIMECMP(id);
    8000005c:	ef1c                	sd	a5,24(a4)
  scratch[4] = interval;
    8000005e:	f310                	sd	a2,32(a4)
}

static inline void 
w_mscratch(uint64 x)
{
  asm volatile("csrw mscratch, %0" : : "r" (x));
    80000060:	34071073          	csrw	mscratch,a4
  asm volatile("csrw mtvec, %0" : : "r" (x));
    80000064:	00006797          	auipc	a5,0x6
    80000068:	d1c78793          	addi	a5,a5,-740 # 80005d80 <timervec>
    8000006c:	30579073          	csrw	mtvec,a5
  asm volatile("csrr %0, mstatus" : "=r" (x) );
    80000070:	300027f3          	csrr	a5,mstatus

  // set the machine-mode trap handler.
  w_mtvec((uint64)timervec);

  // enable machine-mode interrupts.
  w_mstatus(r_mstatus() | MSTATUS_MIE);
    80000074:	0087e793          	ori	a5,a5,8
  asm volatile("csrw mstatus, %0" : : "r" (x));
    80000078:	30079073          	csrw	mstatus,a5
  asm volatile("csrr %0, mie" : "=r" (x) );
    8000007c:	304027f3          	csrr	a5,mie

  // enable machine-mode timer interrupts.
  w_mie(r_mie() | MIE_MTIE);
    80000080:	0807e793          	ori	a5,a5,128
  asm volatile("csrw mie, %0" : : "r" (x));
    80000084:	30479073          	csrw	mie,a5
}
    80000088:	6422                	ld	s0,8(sp)
    8000008a:	0141                	addi	sp,sp,16
    8000008c:	8082                	ret

000000008000008e <start>:
{
    8000008e:	1141                	addi	sp,sp,-16
    80000090:	e406                	sd	ra,8(sp)
    80000092:	e022                	sd	s0,0(sp)
    80000094:	0800                	addi	s0,sp,16
  asm volatile("csrr %0, mstatus" : "=r" (x) );
    80000096:	300027f3          	csrr	a5,mstatus
  x &= ~MSTATUS_MPP_MASK;
    8000009a:	7779                	lui	a4,0xffffe
    8000009c:	7ff70713          	addi	a4,a4,2047 # ffffffffffffe7ff <end+0xffffffff7ffd81a7>
    800000a0:	8ff9                	and	a5,a5,a4
  x |= MSTATUS_MPP_S;
    800000a2:	6705                	lui	a4,0x1
    800000a4:	80070713          	addi	a4,a4,-2048 # 800 <_entry-0x7ffff800>
    800000a8:	8fd9                	or	a5,a5,a4
  asm volatile("csrw mstatus, %0" : : "r" (x));
    800000aa:	30079073          	csrw	mstatus,a5
  asm volatile("csrw mepc, %0" : : "r" (x));
    800000ae:	00001797          	auipc	a5,0x1
    800000b2:	dcc78793          	addi	a5,a5,-564 # 80000e7a <main>
    800000b6:	34179073          	csrw	mepc,a5
  asm volatile("csrw satp, %0" : : "r" (x));
    800000ba:	4781                	li	a5,0
    800000bc:	18079073          	csrw	satp,a5
  asm volatile("csrw medeleg, %0" : : "r" (x));
    800000c0:	67c1                	lui	a5,0x10
    800000c2:	17fd                	addi	a5,a5,-1
    800000c4:	30279073          	csrw	medeleg,a5
  asm volatile("csrw mideleg, %0" : : "r" (x));
    800000c8:	30379073          	csrw	mideleg,a5
  asm volatile("csrr %0, sie" : "=r" (x) );
    800000cc:	104027f3          	csrr	a5,sie
  w_sie(r_sie() | SIE_SEIE | SIE_STIE | SIE_SSIE);
    800000d0:	2227e793          	ori	a5,a5,546
  asm volatile("csrw sie, %0" : : "r" (x));
    800000d4:	10479073          	csrw	sie,a5
  timerinit();
    800000d8:	00000097          	auipc	ra,0x0
    800000dc:	f44080e7          	jalr	-188(ra) # 8000001c <timerinit>
  asm volatile("csrr %0, mhartid" : "=r" (x) );
    800000e0:	f14027f3          	csrr	a5,mhartid
  w_tp(id);
    800000e4:	2781                	sext.w	a5,a5
}

static inline void 
w_tp(uint64 x)
{
  asm volatile("mv tp, %0" : : "r" (x));
    800000e6:	823e                	mv	tp,a5
  asm volatile("csrw pmpaddr0, %0" : : "r" (x));
    800000e8:	57fd                	li	a5,-1
    800000ea:	83a9                	srli	a5,a5,0xa
    800000ec:	3b079073          	csrw	pmpaddr0,a5
  asm volatile("csrw pmpcfg0, %0" : : "r" (x));
    800000f0:	47fd                	li	a5,31
    800000f2:	3a079073          	csrw	pmpcfg0,a5
  asm volatile("mret");
    800000f6:	30200073          	mret
}
    800000fa:	60a2                	ld	ra,8(sp)
    800000fc:	6402                	ld	s0,0(sp)
    800000fe:	0141                	addi	sp,sp,16
    80000100:	8082                	ret

0000000080000102 <consolewrite>:
//
// user write()s to the console go here.
//
int
consolewrite(int user_src, uint64 src, int n)
{
    80000102:	715d                	addi	sp,sp,-80
    80000104:	e486                	sd	ra,72(sp)
    80000106:	e0a2                	sd	s0,64(sp)
    80000108:	fc26                	sd	s1,56(sp)
    8000010a:	f84a                	sd	s2,48(sp)
    8000010c:	f44e                	sd	s3,40(sp)
    8000010e:	f052                	sd	s4,32(sp)
    80000110:	ec56                	sd	s5,24(sp)
    80000112:	0880                	addi	s0,sp,80
  int i;

  for(i = 0; i < n; i++){
    80000114:	04c05663          	blez	a2,80000160 <consolewrite+0x5e>
    80000118:	8a2a                	mv	s4,a0
    8000011a:	84ae                	mv	s1,a1
    8000011c:	89b2                	mv	s3,a2
    8000011e:	4901                	li	s2,0
    char c;
    if(either_copyin(&c, user_src, src+i, 1) == -1)
    80000120:	5afd                	li	s5,-1
    80000122:	4685                	li	a3,1
    80000124:	8626                	mv	a2,s1
    80000126:	85d2                	mv	a1,s4
    80000128:	fbf40513          	addi	a0,s0,-65
    8000012c:	00002097          	auipc	ra,0x2
    80000130:	3f4080e7          	jalr	1012(ra) # 80002520 <either_copyin>
    80000134:	01550c63          	beq	a0,s5,8000014c <consolewrite+0x4a>
      break;
    uartputc(c);
    80000138:	fbf44503          	lbu	a0,-65(s0)
    8000013c:	00000097          	auipc	ra,0x0
    80000140:	77a080e7          	jalr	1914(ra) # 800008b6 <uartputc>
  for(i = 0; i < n; i++){
    80000144:	2905                	addiw	s2,s2,1
    80000146:	0485                	addi	s1,s1,1
    80000148:	fd299de3          	bne	s3,s2,80000122 <consolewrite+0x20>
  }

  return i;
}
    8000014c:	854a                	mv	a0,s2
    8000014e:	60a6                	ld	ra,72(sp)
    80000150:	6406                	ld	s0,64(sp)
    80000152:	74e2                	ld	s1,56(sp)
    80000154:	7942                	ld	s2,48(sp)
    80000156:	79a2                	ld	s3,40(sp)
    80000158:	7a02                	ld	s4,32(sp)
    8000015a:	6ae2                	ld	s5,24(sp)
    8000015c:	6161                	addi	sp,sp,80
    8000015e:	8082                	ret
  for(i = 0; i < n; i++){
    80000160:	4901                	li	s2,0
    80000162:	b7ed                	j	8000014c <consolewrite+0x4a>

0000000080000164 <consoleread>:
// user_dist indicates whether dst is a user
// or kernel address.
//
int
consoleread(int user_dst, uint64 dst, int n)
{
    80000164:	7159                	addi	sp,sp,-112
    80000166:	f486                	sd	ra,104(sp)
    80000168:	f0a2                	sd	s0,96(sp)
    8000016a:	eca6                	sd	s1,88(sp)
    8000016c:	e8ca                	sd	s2,80(sp)
    8000016e:	e4ce                	sd	s3,72(sp)
    80000170:	e0d2                	sd	s4,64(sp)
    80000172:	fc56                	sd	s5,56(sp)
    80000174:	f85a                	sd	s6,48(sp)
    80000176:	f45e                	sd	s7,40(sp)
    80000178:	f062                	sd	s8,32(sp)
    8000017a:	ec66                	sd	s9,24(sp)
    8000017c:	e86a                	sd	s10,16(sp)
    8000017e:	1880                	addi	s0,sp,112
    80000180:	8aaa                	mv	s5,a0
    80000182:	8a2e                	mv	s4,a1
    80000184:	89b2                	mv	s3,a2
  uint target;
  int c;
  char cbuf;

  target = n;
    80000186:	00060b1b          	sext.w	s6,a2
  acquire(&cons.lock);
    8000018a:	00011517          	auipc	a0,0x11
    8000018e:	ff650513          	addi	a0,a0,-10 # 80011180 <cons>
    80000192:	00001097          	auipc	ra,0x1
    80000196:	a3e080e7          	jalr	-1474(ra) # 80000bd0 <acquire>
  while(n > 0){
    // wait until interrupt handler has put some
    // input into cons.buffer.
    while(cons.r == cons.w){
    8000019a:	00011497          	auipc	s1,0x11
    8000019e:	fe648493          	addi	s1,s1,-26 # 80011180 <cons>
      if(myproc()->killed){
        release(&cons.lock);
        return -1;
      }
      sleep(&cons.r, &cons.lock);
    800001a2:	00011917          	auipc	s2,0x11
    800001a6:	07690913          	addi	s2,s2,118 # 80011218 <cons+0x98>
    }

    c = cons.buf[cons.r++ % INPUT_BUF];

    if(c == C('D')){  // end-of-file
    800001aa:	4b91                	li	s7,4
      break;
    }

    // copy the input byte to the user-space buffer.
    cbuf = c;
    if(either_copyout(user_dst, dst, &cbuf, 1) == -1)
    800001ac:	5c7d                	li	s8,-1
      break;

    dst++;
    --n;

    if(c == '\n'){
    800001ae:	4ca9                	li	s9,10
  while(n > 0){
    800001b0:	07305863          	blez	s3,80000220 <consoleread+0xbc>
    while(cons.r == cons.w){
    800001b4:	0984a783          	lw	a5,152(s1)
    800001b8:	09c4a703          	lw	a4,156(s1)
    800001bc:	02f71463          	bne	a4,a5,800001e4 <consoleread+0x80>
      if(myproc()->killed){
    800001c0:	00002097          	auipc	ra,0x2
    800001c4:	8a6080e7          	jalr	-1882(ra) # 80001a66 <myproc>
    800001c8:	551c                	lw	a5,40(a0)
    800001ca:	e7b5                	bnez	a5,80000236 <consoleread+0xd2>
      sleep(&cons.r, &cons.lock);
    800001cc:	85a6                	mv	a1,s1
    800001ce:	854a                	mv	a0,s2
    800001d0:	00002097          	auipc	ra,0x2
    800001d4:	f56080e7          	jalr	-170(ra) # 80002126 <sleep>
    while(cons.r == cons.w){
    800001d8:	0984a783          	lw	a5,152(s1)
    800001dc:	09c4a703          	lw	a4,156(s1)
    800001e0:	fef700e3          	beq	a4,a5,800001c0 <consoleread+0x5c>
    c = cons.buf[cons.r++ % INPUT_BUF];
    800001e4:	0017871b          	addiw	a4,a5,1
    800001e8:	08e4ac23          	sw	a4,152(s1)
    800001ec:	07f7f713          	andi	a4,a5,127
    800001f0:	9726                	add	a4,a4,s1
    800001f2:	01874703          	lbu	a4,24(a4)
    800001f6:	00070d1b          	sext.w	s10,a4
    if(c == C('D')){  // end-of-file
    800001fa:	077d0563          	beq	s10,s7,80000264 <consoleread+0x100>
    cbuf = c;
    800001fe:	f8e40fa3          	sb	a4,-97(s0)
    if(either_copyout(user_dst, dst, &cbuf, 1) == -1)
    80000202:	4685                	li	a3,1
    80000204:	f9f40613          	addi	a2,s0,-97
    80000208:	85d2                	mv	a1,s4
    8000020a:	8556                	mv	a0,s5
    8000020c:	00002097          	auipc	ra,0x2
    80000210:	2be080e7          	jalr	702(ra) # 800024ca <either_copyout>
    80000214:	01850663          	beq	a0,s8,80000220 <consoleread+0xbc>
    dst++;
    80000218:	0a05                	addi	s4,s4,1
    --n;
    8000021a:	39fd                	addiw	s3,s3,-1
    if(c == '\n'){
    8000021c:	f99d1ae3          	bne	s10,s9,800001b0 <consoleread+0x4c>
      // a whole line has arrived, return to
      // the user-level read().
      break;
    }
  }
  release(&cons.lock);
    80000220:	00011517          	auipc	a0,0x11
    80000224:	f6050513          	addi	a0,a0,-160 # 80011180 <cons>
    80000228:	00001097          	auipc	ra,0x1
    8000022c:	a5c080e7          	jalr	-1444(ra) # 80000c84 <release>

  return target - n;
    80000230:	413b053b          	subw	a0,s6,s3
    80000234:	a811                	j	80000248 <consoleread+0xe4>
        release(&cons.lock);
    80000236:	00011517          	auipc	a0,0x11
    8000023a:	f4a50513          	addi	a0,a0,-182 # 80011180 <cons>
    8000023e:	00001097          	auipc	ra,0x1
    80000242:	a46080e7          	jalr	-1466(ra) # 80000c84 <release>
        return -1;
    80000246:	557d                	li	a0,-1
}
    80000248:	70a6                	ld	ra,104(sp)
    8000024a:	7406                	ld	s0,96(sp)
    8000024c:	64e6                	ld	s1,88(sp)
    8000024e:	6946                	ld	s2,80(sp)
    80000250:	69a6                	ld	s3,72(sp)
    80000252:	6a06                	ld	s4,64(sp)
    80000254:	7ae2                	ld	s5,56(sp)
    80000256:	7b42                	ld	s6,48(sp)
    80000258:	7ba2                	ld	s7,40(sp)
    8000025a:	7c02                	ld	s8,32(sp)
    8000025c:	6ce2                	ld	s9,24(sp)
    8000025e:	6d42                	ld	s10,16(sp)
    80000260:	6165                	addi	sp,sp,112
    80000262:	8082                	ret
      if(n < target){
    80000264:	0009871b          	sext.w	a4,s3
    80000268:	fb677ce3          	bgeu	a4,s6,80000220 <consoleread+0xbc>
        cons.r--;
    8000026c:	00011717          	auipc	a4,0x11
    80000270:	faf72623          	sw	a5,-84(a4) # 80011218 <cons+0x98>
    80000274:	b775                	j	80000220 <consoleread+0xbc>

0000000080000276 <consputc>:
{
    80000276:	1141                	addi	sp,sp,-16
    80000278:	e406                	sd	ra,8(sp)
    8000027a:	e022                	sd	s0,0(sp)
    8000027c:	0800                	addi	s0,sp,16
  if(c == BACKSPACE){
    8000027e:	10000793          	li	a5,256
    80000282:	00f50a63          	beq	a0,a5,80000296 <consputc+0x20>
    uartputc_sync(c);
    80000286:	00000097          	auipc	ra,0x0
    8000028a:	55e080e7          	jalr	1374(ra) # 800007e4 <uartputc_sync>
}
    8000028e:	60a2                	ld	ra,8(sp)
    80000290:	6402                	ld	s0,0(sp)
    80000292:	0141                	addi	sp,sp,16
    80000294:	8082                	ret
    uartputc_sync('\b'); uartputc_sync(' '); uartputc_sync('\b');
    80000296:	4521                	li	a0,8
    80000298:	00000097          	auipc	ra,0x0
    8000029c:	54c080e7          	jalr	1356(ra) # 800007e4 <uartputc_sync>
    800002a0:	02000513          	li	a0,32
    800002a4:	00000097          	auipc	ra,0x0
    800002a8:	540080e7          	jalr	1344(ra) # 800007e4 <uartputc_sync>
    800002ac:	4521                	li	a0,8
    800002ae:	00000097          	auipc	ra,0x0
    800002b2:	536080e7          	jalr	1334(ra) # 800007e4 <uartputc_sync>
    800002b6:	bfe1                	j	8000028e <consputc+0x18>

00000000800002b8 <consoleintr>:
// do erase/kill processing, append to cons.buf,
// wake up consoleread() if a whole line has arrived.
//
void
consoleintr(int c)
{
    800002b8:	1101                	addi	sp,sp,-32
    800002ba:	ec06                	sd	ra,24(sp)
    800002bc:	e822                	sd	s0,16(sp)
    800002be:	e426                	sd	s1,8(sp)
    800002c0:	e04a                	sd	s2,0(sp)
    800002c2:	1000                	addi	s0,sp,32
    800002c4:	84aa                	mv	s1,a0
  acquire(&cons.lock);
    800002c6:	00011517          	auipc	a0,0x11
    800002ca:	eba50513          	addi	a0,a0,-326 # 80011180 <cons>
    800002ce:	00001097          	auipc	ra,0x1
    800002d2:	902080e7          	jalr	-1790(ra) # 80000bd0 <acquire>

  switch(c){
    800002d6:	47d5                	li	a5,21
    800002d8:	0af48663          	beq	s1,a5,80000384 <consoleintr+0xcc>
    800002dc:	0297ca63          	blt	a5,s1,80000310 <consoleintr+0x58>
    800002e0:	47a1                	li	a5,8
    800002e2:	0ef48763          	beq	s1,a5,800003d0 <consoleintr+0x118>
    800002e6:	47c1                	li	a5,16
    800002e8:	10f49a63          	bne	s1,a5,800003fc <consoleintr+0x144>
  case C('P'):  // Print process list.
    procdump();
    800002ec:	00002097          	auipc	ra,0x2
    800002f0:	28a080e7          	jalr	650(ra) # 80002576 <procdump>
      }
    }
    break;
  }
  
  release(&cons.lock);
    800002f4:	00011517          	auipc	a0,0x11
    800002f8:	e8c50513          	addi	a0,a0,-372 # 80011180 <cons>
    800002fc:	00001097          	auipc	ra,0x1
    80000300:	988080e7          	jalr	-1656(ra) # 80000c84 <release>
}
    80000304:	60e2                	ld	ra,24(sp)
    80000306:	6442                	ld	s0,16(sp)
    80000308:	64a2                	ld	s1,8(sp)
    8000030a:	6902                	ld	s2,0(sp)
    8000030c:	6105                	addi	sp,sp,32
    8000030e:	8082                	ret
  switch(c){
    80000310:	07f00793          	li	a5,127
    80000314:	0af48e63          	beq	s1,a5,800003d0 <consoleintr+0x118>
    if(c != 0 && cons.e-cons.r < INPUT_BUF){
    80000318:	00011717          	auipc	a4,0x11
    8000031c:	e6870713          	addi	a4,a4,-408 # 80011180 <cons>
    80000320:	0a072783          	lw	a5,160(a4)
    80000324:	09872703          	lw	a4,152(a4)
    80000328:	9f99                	subw	a5,a5,a4
    8000032a:	07f00713          	li	a4,127
    8000032e:	fcf763e3          	bltu	a4,a5,800002f4 <consoleintr+0x3c>
      c = (c == '\r') ? '\n' : c;
    80000332:	47b5                	li	a5,13
    80000334:	0cf48763          	beq	s1,a5,80000402 <consoleintr+0x14a>
      consputc(c);
    80000338:	8526                	mv	a0,s1
    8000033a:	00000097          	auipc	ra,0x0
    8000033e:	f3c080e7          	jalr	-196(ra) # 80000276 <consputc>
      cons.buf[cons.e++ % INPUT_BUF] = c;
    80000342:	00011797          	auipc	a5,0x11
    80000346:	e3e78793          	addi	a5,a5,-450 # 80011180 <cons>
    8000034a:	0a07a703          	lw	a4,160(a5)
    8000034e:	0017069b          	addiw	a3,a4,1
    80000352:	0006861b          	sext.w	a2,a3
    80000356:	0ad7a023          	sw	a3,160(a5)
    8000035a:	07f77713          	andi	a4,a4,127
    8000035e:	97ba                	add	a5,a5,a4
    80000360:	00978c23          	sb	s1,24(a5)
      if(c == '\n' || c == C('D') || cons.e == cons.r+INPUT_BUF){
    80000364:	47a9                	li	a5,10
    80000366:	0cf48563          	beq	s1,a5,80000430 <consoleintr+0x178>
    8000036a:	4791                	li	a5,4
    8000036c:	0cf48263          	beq	s1,a5,80000430 <consoleintr+0x178>
    80000370:	00011797          	auipc	a5,0x11
    80000374:	ea87a783          	lw	a5,-344(a5) # 80011218 <cons+0x98>
    80000378:	0807879b          	addiw	a5,a5,128
    8000037c:	f6f61ce3          	bne	a2,a5,800002f4 <consoleintr+0x3c>
      cons.buf[cons.e++ % INPUT_BUF] = c;
    80000380:	863e                	mv	a2,a5
    80000382:	a07d                	j	80000430 <consoleintr+0x178>
    while(cons.e != cons.w &&
    80000384:	00011717          	auipc	a4,0x11
    80000388:	dfc70713          	addi	a4,a4,-516 # 80011180 <cons>
    8000038c:	0a072783          	lw	a5,160(a4)
    80000390:	09c72703          	lw	a4,156(a4)
          cons.buf[(cons.e-1) % INPUT_BUF] != '\n'){
    80000394:	00011497          	auipc	s1,0x11
    80000398:	dec48493          	addi	s1,s1,-532 # 80011180 <cons>
    while(cons.e != cons.w &&
    8000039c:	4929                	li	s2,10
    8000039e:	f4f70be3          	beq	a4,a5,800002f4 <consoleintr+0x3c>
          cons.buf[(cons.e-1) % INPUT_BUF] != '\n'){
    800003a2:	37fd                	addiw	a5,a5,-1
    800003a4:	07f7f713          	andi	a4,a5,127
    800003a8:	9726                	add	a4,a4,s1
    while(cons.e != cons.w &&
    800003aa:	01874703          	lbu	a4,24(a4)
    800003ae:	f52703e3          	beq	a4,s2,800002f4 <consoleintr+0x3c>
      cons.e--;
    800003b2:	0af4a023          	sw	a5,160(s1)
      consputc(BACKSPACE);
    800003b6:	10000513          	li	a0,256
    800003ba:	00000097          	auipc	ra,0x0
    800003be:	ebc080e7          	jalr	-324(ra) # 80000276 <consputc>
    while(cons.e != cons.w &&
    800003c2:	0a04a783          	lw	a5,160(s1)
    800003c6:	09c4a703          	lw	a4,156(s1)
    800003ca:	fcf71ce3          	bne	a4,a5,800003a2 <consoleintr+0xea>
    800003ce:	b71d                	j	800002f4 <consoleintr+0x3c>
    if(cons.e != cons.w){
    800003d0:	00011717          	auipc	a4,0x11
    800003d4:	db070713          	addi	a4,a4,-592 # 80011180 <cons>
    800003d8:	0a072783          	lw	a5,160(a4)
    800003dc:	09c72703          	lw	a4,156(a4)
    800003e0:	f0f70ae3          	beq	a4,a5,800002f4 <consoleintr+0x3c>
      cons.e--;
    800003e4:	37fd                	addiw	a5,a5,-1
    800003e6:	00011717          	auipc	a4,0x11
    800003ea:	e2f72d23          	sw	a5,-454(a4) # 80011220 <cons+0xa0>
      consputc(BACKSPACE);
    800003ee:	10000513          	li	a0,256
    800003f2:	00000097          	auipc	ra,0x0
    800003f6:	e84080e7          	jalr	-380(ra) # 80000276 <consputc>
    800003fa:	bded                	j	800002f4 <consoleintr+0x3c>
    if(c != 0 && cons.e-cons.r < INPUT_BUF){
    800003fc:	ee048ce3          	beqz	s1,800002f4 <consoleintr+0x3c>
    80000400:	bf21                	j	80000318 <consoleintr+0x60>
      consputc(c);
    80000402:	4529                	li	a0,10
    80000404:	00000097          	auipc	ra,0x0
    80000408:	e72080e7          	jalr	-398(ra) # 80000276 <consputc>
      cons.buf[cons.e++ % INPUT_BUF] = c;
    8000040c:	00011797          	auipc	a5,0x11
    80000410:	d7478793          	addi	a5,a5,-652 # 80011180 <cons>
    80000414:	0a07a703          	lw	a4,160(a5)
    80000418:	0017069b          	addiw	a3,a4,1
    8000041c:	0006861b          	sext.w	a2,a3
    80000420:	0ad7a023          	sw	a3,160(a5)
    80000424:	07f77713          	andi	a4,a4,127
    80000428:	97ba                	add	a5,a5,a4
    8000042a:	4729                	li	a4,10
    8000042c:	00e78c23          	sb	a4,24(a5)
        cons.w = cons.e;
    80000430:	00011797          	auipc	a5,0x11
    80000434:	dec7a623          	sw	a2,-532(a5) # 8001121c <cons+0x9c>
        wakeup(&cons.r);
    80000438:	00011517          	auipc	a0,0x11
    8000043c:	de050513          	addi	a0,a0,-544 # 80011218 <cons+0x98>
    80000440:	00002097          	auipc	ra,0x2
    80000444:	e72080e7          	jalr	-398(ra) # 800022b2 <wakeup>
    80000448:	b575                	j	800002f4 <consoleintr+0x3c>

000000008000044a <consoleinit>:

void
consoleinit(void)
{
    8000044a:	1141                	addi	sp,sp,-16
    8000044c:	e406                	sd	ra,8(sp)
    8000044e:	e022                	sd	s0,0(sp)
    80000450:	0800                	addi	s0,sp,16
  initlock(&cons.lock, "cons");
    80000452:	00008597          	auipc	a1,0x8
    80000456:	bbe58593          	addi	a1,a1,-1090 # 80008010 <etext+0x10>
    8000045a:	00011517          	auipc	a0,0x11
    8000045e:	d2650513          	addi	a0,a0,-730 # 80011180 <cons>
    80000462:	00000097          	auipc	ra,0x0
    80000466:	6de080e7          	jalr	1758(ra) # 80000b40 <initlock>

  uartinit();
    8000046a:	00000097          	auipc	ra,0x0
    8000046e:	32a080e7          	jalr	810(ra) # 80000794 <uartinit>

  // connect read and write system calls
  // to consoleread and consolewrite.
  devsw[CONSOLE].read = consoleread;
    80000472:	00021797          	auipc	a5,0x21
    80000476:	ea678793          	addi	a5,a5,-346 # 80021318 <devsw>
    8000047a:	00000717          	auipc	a4,0x0
    8000047e:	cea70713          	addi	a4,a4,-790 # 80000164 <consoleread>
    80000482:	eb98                	sd	a4,16(a5)
  devsw[CONSOLE].write = consolewrite;
    80000484:	00000717          	auipc	a4,0x0
    80000488:	c7e70713          	addi	a4,a4,-898 # 80000102 <consolewrite>
    8000048c:	ef98                	sd	a4,24(a5)
}
    8000048e:	60a2                	ld	ra,8(sp)
    80000490:	6402                	ld	s0,0(sp)
    80000492:	0141                	addi	sp,sp,16
    80000494:	8082                	ret

0000000080000496 <printint>:

static char digits[] = "0123456789abcdef";

static void
printint(int xx, int base, int sign)
{
    80000496:	7179                	addi	sp,sp,-48
    80000498:	f406                	sd	ra,40(sp)
    8000049a:	f022                	sd	s0,32(sp)
    8000049c:	ec26                	sd	s1,24(sp)
    8000049e:	e84a                	sd	s2,16(sp)
    800004a0:	1800                	addi	s0,sp,48
  char buf[16];
  int i;
  uint x;

  if(sign && (sign = xx < 0))
    800004a2:	c219                	beqz	a2,800004a8 <printint+0x12>
    800004a4:	08054663          	bltz	a0,80000530 <printint+0x9a>
    x = -xx;
  else
    x = xx;
    800004a8:	2501                	sext.w	a0,a0
    800004aa:	4881                	li	a7,0
    800004ac:	fd040693          	addi	a3,s0,-48

  i = 0;
    800004b0:	4701                	li	a4,0
  do {
    buf[i++] = digits[x % base];
    800004b2:	2581                	sext.w	a1,a1
    800004b4:	00008617          	auipc	a2,0x8
    800004b8:	b8c60613          	addi	a2,a2,-1140 # 80008040 <digits>
    800004bc:	883a                	mv	a6,a4
    800004be:	2705                	addiw	a4,a4,1
    800004c0:	02b577bb          	remuw	a5,a0,a1
    800004c4:	1782                	slli	a5,a5,0x20
    800004c6:	9381                	srli	a5,a5,0x20
    800004c8:	97b2                	add	a5,a5,a2
    800004ca:	0007c783          	lbu	a5,0(a5)
    800004ce:	00f68023          	sb	a5,0(a3)
  } while((x /= base) != 0);
    800004d2:	0005079b          	sext.w	a5,a0
    800004d6:	02b5553b          	divuw	a0,a0,a1
    800004da:	0685                	addi	a3,a3,1
    800004dc:	feb7f0e3          	bgeu	a5,a1,800004bc <printint+0x26>

  if(sign)
    800004e0:	00088b63          	beqz	a7,800004f6 <printint+0x60>
    buf[i++] = '-';
    800004e4:	fe040793          	addi	a5,s0,-32
    800004e8:	973e                	add	a4,a4,a5
    800004ea:	02d00793          	li	a5,45
    800004ee:	fef70823          	sb	a5,-16(a4)
    800004f2:	0028071b          	addiw	a4,a6,2

  while(--i >= 0)
    800004f6:	02e05763          	blez	a4,80000524 <printint+0x8e>
    800004fa:	fd040793          	addi	a5,s0,-48
    800004fe:	00e784b3          	add	s1,a5,a4
    80000502:	fff78913          	addi	s2,a5,-1
    80000506:	993a                	add	s2,s2,a4
    80000508:	377d                	addiw	a4,a4,-1
    8000050a:	1702                	slli	a4,a4,0x20
    8000050c:	9301                	srli	a4,a4,0x20
    8000050e:	40e90933          	sub	s2,s2,a4
    consputc(buf[i]);
    80000512:	fff4c503          	lbu	a0,-1(s1)
    80000516:	00000097          	auipc	ra,0x0
    8000051a:	d60080e7          	jalr	-672(ra) # 80000276 <consputc>
  while(--i >= 0)
    8000051e:	14fd                	addi	s1,s1,-1
    80000520:	ff2499e3          	bne	s1,s2,80000512 <printint+0x7c>
}
    80000524:	70a2                	ld	ra,40(sp)
    80000526:	7402                	ld	s0,32(sp)
    80000528:	64e2                	ld	s1,24(sp)
    8000052a:	6942                	ld	s2,16(sp)
    8000052c:	6145                	addi	sp,sp,48
    8000052e:	8082                	ret
    x = -xx;
    80000530:	40a0053b          	negw	a0,a0
  if(sign && (sign = xx < 0))
    80000534:	4885                	li	a7,1
    x = -xx;
    80000536:	bf9d                	j	800004ac <printint+0x16>

0000000080000538 <panic>:
    release(&pr.lock);
}

void
panic(char *s)
{
    80000538:	1101                	addi	sp,sp,-32
    8000053a:	ec06                	sd	ra,24(sp)
    8000053c:	e822                	sd	s0,16(sp)
    8000053e:	e426                	sd	s1,8(sp)
    80000540:	1000                	addi	s0,sp,32
    80000542:	84aa                	mv	s1,a0
  pr.locking = 0;
    80000544:	00011797          	auipc	a5,0x11
    80000548:	ce07ae23          	sw	zero,-772(a5) # 80011240 <pr+0x18>
  printf("panic: ");
    8000054c:	00008517          	auipc	a0,0x8
    80000550:	acc50513          	addi	a0,a0,-1332 # 80008018 <etext+0x18>
    80000554:	00000097          	auipc	ra,0x0
    80000558:	02e080e7          	jalr	46(ra) # 80000582 <printf>
  printf(s);
    8000055c:	8526                	mv	a0,s1
    8000055e:	00000097          	auipc	ra,0x0
    80000562:	024080e7          	jalr	36(ra) # 80000582 <printf>
  printf("\n");
    80000566:	00008517          	auipc	a0,0x8
    8000056a:	33a50513          	addi	a0,a0,826 # 800088a0 <syscalls+0x470>
    8000056e:	00000097          	auipc	ra,0x0
    80000572:	014080e7          	jalr	20(ra) # 80000582 <printf>
  panicked = 1; // freeze uart output from other CPUs
    80000576:	4785                	li	a5,1
    80000578:	00009717          	auipc	a4,0x9
    8000057c:	a8f72423          	sw	a5,-1400(a4) # 80009000 <panicked>
  for(;;)
    80000580:	a001                	j	80000580 <panic+0x48>

0000000080000582 <printf>:
{
    80000582:	7131                	addi	sp,sp,-192
    80000584:	fc86                	sd	ra,120(sp)
    80000586:	f8a2                	sd	s0,112(sp)
    80000588:	f4a6                	sd	s1,104(sp)
    8000058a:	f0ca                	sd	s2,96(sp)
    8000058c:	ecce                	sd	s3,88(sp)
    8000058e:	e8d2                	sd	s4,80(sp)
    80000590:	e4d6                	sd	s5,72(sp)
    80000592:	e0da                	sd	s6,64(sp)
    80000594:	fc5e                	sd	s7,56(sp)
    80000596:	f862                	sd	s8,48(sp)
    80000598:	f466                	sd	s9,40(sp)
    8000059a:	f06a                	sd	s10,32(sp)
    8000059c:	ec6e                	sd	s11,24(sp)
    8000059e:	0100                	addi	s0,sp,128
    800005a0:	8a2a                	mv	s4,a0
    800005a2:	e40c                	sd	a1,8(s0)
    800005a4:	e810                	sd	a2,16(s0)
    800005a6:	ec14                	sd	a3,24(s0)
    800005a8:	f018                	sd	a4,32(s0)
    800005aa:	f41c                	sd	a5,40(s0)
    800005ac:	03043823          	sd	a6,48(s0)
    800005b0:	03143c23          	sd	a7,56(s0)
  locking = pr.locking;
    800005b4:	00011d97          	auipc	s11,0x11
    800005b8:	c8cdad83          	lw	s11,-884(s11) # 80011240 <pr+0x18>
  if(locking)
    800005bc:	020d9b63          	bnez	s11,800005f2 <printf+0x70>
  if (fmt == 0)
    800005c0:	040a0263          	beqz	s4,80000604 <printf+0x82>
  va_start(ap, fmt);
    800005c4:	00840793          	addi	a5,s0,8
    800005c8:	f8f43423          	sd	a5,-120(s0)
  for(i = 0; (c = fmt[i] & 0xff) != 0; i++){
    800005cc:	000a4503          	lbu	a0,0(s4)
    800005d0:	14050f63          	beqz	a0,8000072e <printf+0x1ac>
    800005d4:	4981                	li	s3,0
    if(c != '%'){
    800005d6:	02500a93          	li	s5,37
    switch(c){
    800005da:	07000b93          	li	s7,112
  consputc('x');
    800005de:	4d41                	li	s10,16
    consputc(digits[x >> (sizeof(uint64) * 8 - 4)]);
    800005e0:	00008b17          	auipc	s6,0x8
    800005e4:	a60b0b13          	addi	s6,s6,-1440 # 80008040 <digits>
    switch(c){
    800005e8:	07300c93          	li	s9,115
    800005ec:	06400c13          	li	s8,100
    800005f0:	a82d                	j	8000062a <printf+0xa8>
    acquire(&pr.lock);
    800005f2:	00011517          	auipc	a0,0x11
    800005f6:	c3650513          	addi	a0,a0,-970 # 80011228 <pr>
    800005fa:	00000097          	auipc	ra,0x0
    800005fe:	5d6080e7          	jalr	1494(ra) # 80000bd0 <acquire>
    80000602:	bf7d                	j	800005c0 <printf+0x3e>
    panic("null fmt");
    80000604:	00008517          	auipc	a0,0x8
    80000608:	a2450513          	addi	a0,a0,-1500 # 80008028 <etext+0x28>
    8000060c:	00000097          	auipc	ra,0x0
    80000610:	f2c080e7          	jalr	-212(ra) # 80000538 <panic>
      consputc(c);
    80000614:	00000097          	auipc	ra,0x0
    80000618:	c62080e7          	jalr	-926(ra) # 80000276 <consputc>
  for(i = 0; (c = fmt[i] & 0xff) != 0; i++){
    8000061c:	2985                	addiw	s3,s3,1
    8000061e:	013a07b3          	add	a5,s4,s3
    80000622:	0007c503          	lbu	a0,0(a5)
    80000626:	10050463          	beqz	a0,8000072e <printf+0x1ac>
    if(c != '%'){
    8000062a:	ff5515e3          	bne	a0,s5,80000614 <printf+0x92>
    c = fmt[++i] & 0xff;
    8000062e:	2985                	addiw	s3,s3,1
    80000630:	013a07b3          	add	a5,s4,s3
    80000634:	0007c783          	lbu	a5,0(a5)
    80000638:	0007849b          	sext.w	s1,a5
    if(c == 0)
    8000063c:	cbed                	beqz	a5,8000072e <printf+0x1ac>
    switch(c){
    8000063e:	05778a63          	beq	a5,s7,80000692 <printf+0x110>
    80000642:	02fbf663          	bgeu	s7,a5,8000066e <printf+0xec>
    80000646:	09978863          	beq	a5,s9,800006d6 <printf+0x154>
    8000064a:	07800713          	li	a4,120
    8000064e:	0ce79563          	bne	a5,a4,80000718 <printf+0x196>
      printint(va_arg(ap, int), 16, 1);
    80000652:	f8843783          	ld	a5,-120(s0)
    80000656:	00878713          	addi	a4,a5,8
    8000065a:	f8e43423          	sd	a4,-120(s0)
    8000065e:	4605                	li	a2,1
    80000660:	85ea                	mv	a1,s10
    80000662:	4388                	lw	a0,0(a5)
    80000664:	00000097          	auipc	ra,0x0
    80000668:	e32080e7          	jalr	-462(ra) # 80000496 <printint>
      break;
    8000066c:	bf45                	j	8000061c <printf+0x9a>
    switch(c){
    8000066e:	09578f63          	beq	a5,s5,8000070c <printf+0x18a>
    80000672:	0b879363          	bne	a5,s8,80000718 <printf+0x196>
      printint(va_arg(ap, int), 10, 1);
    80000676:	f8843783          	ld	a5,-120(s0)
    8000067a:	00878713          	addi	a4,a5,8
    8000067e:	f8e43423          	sd	a4,-120(s0)
    80000682:	4605                	li	a2,1
    80000684:	45a9                	li	a1,10
    80000686:	4388                	lw	a0,0(a5)
    80000688:	00000097          	auipc	ra,0x0
    8000068c:	e0e080e7          	jalr	-498(ra) # 80000496 <printint>
      break;
    80000690:	b771                	j	8000061c <printf+0x9a>
      printptr(va_arg(ap, uint64));
    80000692:	f8843783          	ld	a5,-120(s0)
    80000696:	00878713          	addi	a4,a5,8
    8000069a:	f8e43423          	sd	a4,-120(s0)
    8000069e:	0007b903          	ld	s2,0(a5)
  consputc('0');
    800006a2:	03000513          	li	a0,48
    800006a6:	00000097          	auipc	ra,0x0
    800006aa:	bd0080e7          	jalr	-1072(ra) # 80000276 <consputc>
  consputc('x');
    800006ae:	07800513          	li	a0,120
    800006b2:	00000097          	auipc	ra,0x0
    800006b6:	bc4080e7          	jalr	-1084(ra) # 80000276 <consputc>
    800006ba:	84ea                	mv	s1,s10
    consputc(digits[x >> (sizeof(uint64) * 8 - 4)]);
    800006bc:	03c95793          	srli	a5,s2,0x3c
    800006c0:	97da                	add	a5,a5,s6
    800006c2:	0007c503          	lbu	a0,0(a5)
    800006c6:	00000097          	auipc	ra,0x0
    800006ca:	bb0080e7          	jalr	-1104(ra) # 80000276 <consputc>
  for (i = 0; i < (sizeof(uint64) * 2); i++, x <<= 4)
    800006ce:	0912                	slli	s2,s2,0x4
    800006d0:	34fd                	addiw	s1,s1,-1
    800006d2:	f4ed                	bnez	s1,800006bc <printf+0x13a>
    800006d4:	b7a1                	j	8000061c <printf+0x9a>
      if((s = va_arg(ap, char*)) == 0)
    800006d6:	f8843783          	ld	a5,-120(s0)
    800006da:	00878713          	addi	a4,a5,8
    800006de:	f8e43423          	sd	a4,-120(s0)
    800006e2:	6384                	ld	s1,0(a5)
    800006e4:	cc89                	beqz	s1,800006fe <printf+0x17c>
      for(; *s; s++)
    800006e6:	0004c503          	lbu	a0,0(s1)
    800006ea:	d90d                	beqz	a0,8000061c <printf+0x9a>
        consputc(*s);
    800006ec:	00000097          	auipc	ra,0x0
    800006f0:	b8a080e7          	jalr	-1142(ra) # 80000276 <consputc>
      for(; *s; s++)
    800006f4:	0485                	addi	s1,s1,1
    800006f6:	0004c503          	lbu	a0,0(s1)
    800006fa:	f96d                	bnez	a0,800006ec <printf+0x16a>
    800006fc:	b705                	j	8000061c <printf+0x9a>
        s = "(null)";
    800006fe:	00008497          	auipc	s1,0x8
    80000702:	92248493          	addi	s1,s1,-1758 # 80008020 <etext+0x20>
      for(; *s; s++)
    80000706:	02800513          	li	a0,40
    8000070a:	b7cd                	j	800006ec <printf+0x16a>
      consputc('%');
    8000070c:	8556                	mv	a0,s5
    8000070e:	00000097          	auipc	ra,0x0
    80000712:	b68080e7          	jalr	-1176(ra) # 80000276 <consputc>
      break;
    80000716:	b719                	j	8000061c <printf+0x9a>
      consputc('%');
    80000718:	8556                	mv	a0,s5
    8000071a:	00000097          	auipc	ra,0x0
    8000071e:	b5c080e7          	jalr	-1188(ra) # 80000276 <consputc>
      consputc(c);
    80000722:	8526                	mv	a0,s1
    80000724:	00000097          	auipc	ra,0x0
    80000728:	b52080e7          	jalr	-1198(ra) # 80000276 <consputc>
      break;
    8000072c:	bdc5                	j	8000061c <printf+0x9a>
  if(locking)
    8000072e:	020d9163          	bnez	s11,80000750 <printf+0x1ce>
}
    80000732:	70e6                	ld	ra,120(sp)
    80000734:	7446                	ld	s0,112(sp)
    80000736:	74a6                	ld	s1,104(sp)
    80000738:	7906                	ld	s2,96(sp)
    8000073a:	69e6                	ld	s3,88(sp)
    8000073c:	6a46                	ld	s4,80(sp)
    8000073e:	6aa6                	ld	s5,72(sp)
    80000740:	6b06                	ld	s6,64(sp)
    80000742:	7be2                	ld	s7,56(sp)
    80000744:	7c42                	ld	s8,48(sp)
    80000746:	7ca2                	ld	s9,40(sp)
    80000748:	7d02                	ld	s10,32(sp)
    8000074a:	6de2                	ld	s11,24(sp)
    8000074c:	6129                	addi	sp,sp,192
    8000074e:	8082                	ret
    release(&pr.lock);
    80000750:	00011517          	auipc	a0,0x11
    80000754:	ad850513          	addi	a0,a0,-1320 # 80011228 <pr>
    80000758:	00000097          	auipc	ra,0x0
    8000075c:	52c080e7          	jalr	1324(ra) # 80000c84 <release>
}
    80000760:	bfc9                	j	80000732 <printf+0x1b0>

0000000080000762 <printfinit>:
    ;
}

void
printfinit(void)
{
    80000762:	1101                	addi	sp,sp,-32
    80000764:	ec06                	sd	ra,24(sp)
    80000766:	e822                	sd	s0,16(sp)
    80000768:	e426                	sd	s1,8(sp)
    8000076a:	1000                	addi	s0,sp,32
  initlock(&pr.lock, "pr");
    8000076c:	00011497          	auipc	s1,0x11
    80000770:	abc48493          	addi	s1,s1,-1348 # 80011228 <pr>
    80000774:	00008597          	auipc	a1,0x8
    80000778:	8c458593          	addi	a1,a1,-1852 # 80008038 <etext+0x38>
    8000077c:	8526                	mv	a0,s1
    8000077e:	00000097          	auipc	ra,0x0
    80000782:	3c2080e7          	jalr	962(ra) # 80000b40 <initlock>
  pr.locking = 1;
    80000786:	4785                	li	a5,1
    80000788:	cc9c                	sw	a5,24(s1)
}
    8000078a:	60e2                	ld	ra,24(sp)
    8000078c:	6442                	ld	s0,16(sp)
    8000078e:	64a2                	ld	s1,8(sp)
    80000790:	6105                	addi	sp,sp,32
    80000792:	8082                	ret

0000000080000794 <uartinit>:

void uartstart();

void
uartinit(void)
{
    80000794:	1141                	addi	sp,sp,-16
    80000796:	e406                	sd	ra,8(sp)
    80000798:	e022                	sd	s0,0(sp)
    8000079a:	0800                	addi	s0,sp,16
  // disable interrupts.
  WriteReg(IER, 0x00);
    8000079c:	100007b7          	lui	a5,0x10000
    800007a0:	000780a3          	sb	zero,1(a5) # 10000001 <_entry-0x6fffffff>

  // special mode to set baud rate.
  WriteReg(LCR, LCR_BAUD_LATCH);
    800007a4:	f8000713          	li	a4,-128
    800007a8:	00e781a3          	sb	a4,3(a5)

  // LSB for baud rate of 38.4K.
  WriteReg(0, 0x03);
    800007ac:	470d                	li	a4,3
    800007ae:	00e78023          	sb	a4,0(a5)

  // MSB for baud rate of 38.4K.
  WriteReg(1, 0x00);
    800007b2:	000780a3          	sb	zero,1(a5)

  // leave set-baud mode,
  // and set word length to 8 bits, no parity.
  WriteReg(LCR, LCR_EIGHT_BITS);
    800007b6:	00e781a3          	sb	a4,3(a5)

  // reset and enable FIFOs.
  WriteReg(FCR, FCR_FIFO_ENABLE | FCR_FIFO_CLEAR);
    800007ba:	469d                	li	a3,7
    800007bc:	00d78123          	sb	a3,2(a5)

  // enable transmit and receive interrupts.
  WriteReg(IER, IER_TX_ENABLE | IER_RX_ENABLE);
    800007c0:	00e780a3          	sb	a4,1(a5)

  initlock(&uart_tx_lock, "uart");
    800007c4:	00008597          	auipc	a1,0x8
    800007c8:	89458593          	addi	a1,a1,-1900 # 80008058 <digits+0x18>
    800007cc:	00011517          	auipc	a0,0x11
    800007d0:	a7c50513          	addi	a0,a0,-1412 # 80011248 <uart_tx_lock>
    800007d4:	00000097          	auipc	ra,0x0
    800007d8:	36c080e7          	jalr	876(ra) # 80000b40 <initlock>
}
    800007dc:	60a2                	ld	ra,8(sp)
    800007de:	6402                	ld	s0,0(sp)
    800007e0:	0141                	addi	sp,sp,16
    800007e2:	8082                	ret

00000000800007e4 <uartputc_sync>:
// use interrupts, for use by kernel printf() and
// to echo characters. it spins waiting for the uart's
// output register to be empty.
void
uartputc_sync(int c)
{
    800007e4:	1101                	addi	sp,sp,-32
    800007e6:	ec06                	sd	ra,24(sp)
    800007e8:	e822                	sd	s0,16(sp)
    800007ea:	e426                	sd	s1,8(sp)
    800007ec:	1000                	addi	s0,sp,32
    800007ee:	84aa                	mv	s1,a0
  push_off();
    800007f0:	00000097          	auipc	ra,0x0
    800007f4:	394080e7          	jalr	916(ra) # 80000b84 <push_off>

  if(panicked){
    800007f8:	00009797          	auipc	a5,0x9
    800007fc:	8087a783          	lw	a5,-2040(a5) # 80009000 <panicked>
    for(;;)
      ;
  }

  // wait for Transmit Holding Empty to be set in LSR.
  while((ReadReg(LSR) & LSR_TX_IDLE) == 0)
    80000800:	10000737          	lui	a4,0x10000
  if(panicked){
    80000804:	c391                	beqz	a5,80000808 <uartputc_sync+0x24>
    for(;;)
    80000806:	a001                	j	80000806 <uartputc_sync+0x22>
  while((ReadReg(LSR) & LSR_TX_IDLE) == 0)
    80000808:	00574783          	lbu	a5,5(a4) # 10000005 <_entry-0x6ffffffb>
    8000080c:	0207f793          	andi	a5,a5,32
    80000810:	dfe5                	beqz	a5,80000808 <uartputc_sync+0x24>
    ;
  WriteReg(THR, c);
    80000812:	0ff4f513          	zext.b	a0,s1
    80000816:	100007b7          	lui	a5,0x10000
    8000081a:	00a78023          	sb	a0,0(a5) # 10000000 <_entry-0x70000000>

  pop_off();
    8000081e:	00000097          	auipc	ra,0x0
    80000822:	406080e7          	jalr	1030(ra) # 80000c24 <pop_off>
}
    80000826:	60e2                	ld	ra,24(sp)
    80000828:	6442                	ld	s0,16(sp)
    8000082a:	64a2                	ld	s1,8(sp)
    8000082c:	6105                	addi	sp,sp,32
    8000082e:	8082                	ret

0000000080000830 <uartstart>:
// called from both the top- and bottom-half.
void
uartstart()
{
  while(1){
    if(uart_tx_w == uart_tx_r){
    80000830:	00008797          	auipc	a5,0x8
    80000834:	7d87b783          	ld	a5,2008(a5) # 80009008 <uart_tx_r>
    80000838:	00008717          	auipc	a4,0x8
    8000083c:	7d873703          	ld	a4,2008(a4) # 80009010 <uart_tx_w>
    80000840:	06f70a63          	beq	a4,a5,800008b4 <uartstart+0x84>
{
    80000844:	7139                	addi	sp,sp,-64
    80000846:	fc06                	sd	ra,56(sp)
    80000848:	f822                	sd	s0,48(sp)
    8000084a:	f426                	sd	s1,40(sp)
    8000084c:	f04a                	sd	s2,32(sp)
    8000084e:	ec4e                	sd	s3,24(sp)
    80000850:	e852                	sd	s4,16(sp)
    80000852:	e456                	sd	s5,8(sp)
    80000854:	0080                	addi	s0,sp,64
      // transmit buffer is empty.
      return;
    }
    
    if((ReadReg(LSR) & LSR_TX_IDLE) == 0){
    80000856:	10000937          	lui	s2,0x10000
      // so we cannot give it another byte.
      // it will interrupt when it's ready for a new byte.
      return;
    }
    
    int c = uart_tx_buf[uart_tx_r % UART_TX_BUF_SIZE];
    8000085a:	00011a17          	auipc	s4,0x11
    8000085e:	9eea0a13          	addi	s4,s4,-1554 # 80011248 <uart_tx_lock>
    uart_tx_r += 1;
    80000862:	00008497          	auipc	s1,0x8
    80000866:	7a648493          	addi	s1,s1,1958 # 80009008 <uart_tx_r>
    if(uart_tx_w == uart_tx_r){
    8000086a:	00008997          	auipc	s3,0x8
    8000086e:	7a698993          	addi	s3,s3,1958 # 80009010 <uart_tx_w>
    if((ReadReg(LSR) & LSR_TX_IDLE) == 0){
    80000872:	00594703          	lbu	a4,5(s2) # 10000005 <_entry-0x6ffffffb>
    80000876:	02077713          	andi	a4,a4,32
    8000087a:	c705                	beqz	a4,800008a2 <uartstart+0x72>
    int c = uart_tx_buf[uart_tx_r % UART_TX_BUF_SIZE];
    8000087c:	01f7f713          	andi	a4,a5,31
    80000880:	9752                	add	a4,a4,s4
    80000882:	01874a83          	lbu	s5,24(a4)
    uart_tx_r += 1;
    80000886:	0785                	addi	a5,a5,1
    80000888:	e09c                	sd	a5,0(s1)
    
    // maybe uartputc() is waiting for space in the buffer.
    wakeup(&uart_tx_r);
    8000088a:	8526                	mv	a0,s1
    8000088c:	00002097          	auipc	ra,0x2
    80000890:	a26080e7          	jalr	-1498(ra) # 800022b2 <wakeup>
    
    WriteReg(THR, c);
    80000894:	01590023          	sb	s5,0(s2)
    if(uart_tx_w == uart_tx_r){
    80000898:	609c                	ld	a5,0(s1)
    8000089a:	0009b703          	ld	a4,0(s3)
    8000089e:	fcf71ae3          	bne	a4,a5,80000872 <uartstart+0x42>
  }
}
    800008a2:	70e2                	ld	ra,56(sp)
    800008a4:	7442                	ld	s0,48(sp)
    800008a6:	74a2                	ld	s1,40(sp)
    800008a8:	7902                	ld	s2,32(sp)
    800008aa:	69e2                	ld	s3,24(sp)
    800008ac:	6a42                	ld	s4,16(sp)
    800008ae:	6aa2                	ld	s5,8(sp)
    800008b0:	6121                	addi	sp,sp,64
    800008b2:	8082                	ret
    800008b4:	8082                	ret

00000000800008b6 <uartputc>:
{
    800008b6:	7179                	addi	sp,sp,-48
    800008b8:	f406                	sd	ra,40(sp)
    800008ba:	f022                	sd	s0,32(sp)
    800008bc:	ec26                	sd	s1,24(sp)
    800008be:	e84a                	sd	s2,16(sp)
    800008c0:	e44e                	sd	s3,8(sp)
    800008c2:	e052                	sd	s4,0(sp)
    800008c4:	1800                	addi	s0,sp,48
    800008c6:	8a2a                	mv	s4,a0
  acquire(&uart_tx_lock);
    800008c8:	00011517          	auipc	a0,0x11
    800008cc:	98050513          	addi	a0,a0,-1664 # 80011248 <uart_tx_lock>
    800008d0:	00000097          	auipc	ra,0x0
    800008d4:	300080e7          	jalr	768(ra) # 80000bd0 <acquire>
  if(panicked){
    800008d8:	00008797          	auipc	a5,0x8
    800008dc:	7287a783          	lw	a5,1832(a5) # 80009000 <panicked>
    800008e0:	c391                	beqz	a5,800008e4 <uartputc+0x2e>
    for(;;)
    800008e2:	a001                	j	800008e2 <uartputc+0x2c>
    if(uart_tx_w == uart_tx_r + UART_TX_BUF_SIZE){
    800008e4:	00008717          	auipc	a4,0x8
    800008e8:	72c73703          	ld	a4,1836(a4) # 80009010 <uart_tx_w>
    800008ec:	00008797          	auipc	a5,0x8
    800008f0:	71c7b783          	ld	a5,1820(a5) # 80009008 <uart_tx_r>
    800008f4:	02078793          	addi	a5,a5,32
    800008f8:	02e79b63          	bne	a5,a4,8000092e <uartputc+0x78>
      sleep(&uart_tx_r, &uart_tx_lock);
    800008fc:	00011997          	auipc	s3,0x11
    80000900:	94c98993          	addi	s3,s3,-1716 # 80011248 <uart_tx_lock>
    80000904:	00008497          	auipc	s1,0x8
    80000908:	70448493          	addi	s1,s1,1796 # 80009008 <uart_tx_r>
    if(uart_tx_w == uart_tx_r + UART_TX_BUF_SIZE){
    8000090c:	00008917          	auipc	s2,0x8
    80000910:	70490913          	addi	s2,s2,1796 # 80009010 <uart_tx_w>
      sleep(&uart_tx_r, &uart_tx_lock);
    80000914:	85ce                	mv	a1,s3
    80000916:	8526                	mv	a0,s1
    80000918:	00002097          	auipc	ra,0x2
    8000091c:	80e080e7          	jalr	-2034(ra) # 80002126 <sleep>
    if(uart_tx_w == uart_tx_r + UART_TX_BUF_SIZE){
    80000920:	00093703          	ld	a4,0(s2)
    80000924:	609c                	ld	a5,0(s1)
    80000926:	02078793          	addi	a5,a5,32
    8000092a:	fee785e3          	beq	a5,a4,80000914 <uartputc+0x5e>
      uart_tx_buf[uart_tx_w % UART_TX_BUF_SIZE] = c;
    8000092e:	00011497          	auipc	s1,0x11
    80000932:	91a48493          	addi	s1,s1,-1766 # 80011248 <uart_tx_lock>
    80000936:	01f77793          	andi	a5,a4,31
    8000093a:	97a6                	add	a5,a5,s1
    8000093c:	01478c23          	sb	s4,24(a5)
      uart_tx_w += 1;
    80000940:	0705                	addi	a4,a4,1
    80000942:	00008797          	auipc	a5,0x8
    80000946:	6ce7b723          	sd	a4,1742(a5) # 80009010 <uart_tx_w>
      uartstart();
    8000094a:	00000097          	auipc	ra,0x0
    8000094e:	ee6080e7          	jalr	-282(ra) # 80000830 <uartstart>
      release(&uart_tx_lock);
    80000952:	8526                	mv	a0,s1
    80000954:	00000097          	auipc	ra,0x0
    80000958:	330080e7          	jalr	816(ra) # 80000c84 <release>
}
    8000095c:	70a2                	ld	ra,40(sp)
    8000095e:	7402                	ld	s0,32(sp)
    80000960:	64e2                	ld	s1,24(sp)
    80000962:	6942                	ld	s2,16(sp)
    80000964:	69a2                	ld	s3,8(sp)
    80000966:	6a02                	ld	s4,0(sp)
    80000968:	6145                	addi	sp,sp,48
    8000096a:	8082                	ret

000000008000096c <uartgetc>:

// read one input character from the UART.
// return -1 if none is waiting.
int
uartgetc(void)
{
    8000096c:	1141                	addi	sp,sp,-16
    8000096e:	e422                	sd	s0,8(sp)
    80000970:	0800                	addi	s0,sp,16
  if(ReadReg(LSR) & 0x01){
    80000972:	100007b7          	lui	a5,0x10000
    80000976:	0057c783          	lbu	a5,5(a5) # 10000005 <_entry-0x6ffffffb>
    8000097a:	8b85                	andi	a5,a5,1
    8000097c:	cb91                	beqz	a5,80000990 <uartgetc+0x24>
    // input data is ready.
    return ReadReg(RHR);
    8000097e:	100007b7          	lui	a5,0x10000
    80000982:	0007c503          	lbu	a0,0(a5) # 10000000 <_entry-0x70000000>
    80000986:	0ff57513          	zext.b	a0,a0
  } else {
    return -1;
  }
}
    8000098a:	6422                	ld	s0,8(sp)
    8000098c:	0141                	addi	sp,sp,16
    8000098e:	8082                	ret
    return -1;
    80000990:	557d                	li	a0,-1
    80000992:	bfe5                	j	8000098a <uartgetc+0x1e>

0000000080000994 <uartintr>:
// handle a uart interrupt, raised because input has
// arrived, or the uart is ready for more output, or
// both. called from trap.c.
void
uartintr(void)
{
    80000994:	1101                	addi	sp,sp,-32
    80000996:	ec06                	sd	ra,24(sp)
    80000998:	e822                	sd	s0,16(sp)
    8000099a:	e426                	sd	s1,8(sp)
    8000099c:	1000                	addi	s0,sp,32
  // read and process incoming characters.
  while(1){
    int c = uartgetc();
    if(c == -1)
    8000099e:	54fd                	li	s1,-1
    800009a0:	a029                	j	800009aa <uartintr+0x16>
      break;
    consoleintr(c);
    800009a2:	00000097          	auipc	ra,0x0
    800009a6:	916080e7          	jalr	-1770(ra) # 800002b8 <consoleintr>
    int c = uartgetc();
    800009aa:	00000097          	auipc	ra,0x0
    800009ae:	fc2080e7          	jalr	-62(ra) # 8000096c <uartgetc>
    if(c == -1)
    800009b2:	fe9518e3          	bne	a0,s1,800009a2 <uartintr+0xe>
  }

  // send buffered characters.
  acquire(&uart_tx_lock);
    800009b6:	00011497          	auipc	s1,0x11
    800009ba:	89248493          	addi	s1,s1,-1902 # 80011248 <uart_tx_lock>
    800009be:	8526                	mv	a0,s1
    800009c0:	00000097          	auipc	ra,0x0
    800009c4:	210080e7          	jalr	528(ra) # 80000bd0 <acquire>
  uartstart();
    800009c8:	00000097          	auipc	ra,0x0
    800009cc:	e68080e7          	jalr	-408(ra) # 80000830 <uartstart>
  release(&uart_tx_lock);
    800009d0:	8526                	mv	a0,s1
    800009d2:	00000097          	auipc	ra,0x0
    800009d6:	2b2080e7          	jalr	690(ra) # 80000c84 <release>
}
    800009da:	60e2                	ld	ra,24(sp)
    800009dc:	6442                	ld	s0,16(sp)
    800009de:	64a2                	ld	s1,8(sp)
    800009e0:	6105                	addi	sp,sp,32
    800009e2:	8082                	ret

00000000800009e4 <kfree>:
// which normally should have been returned by a
// call to kalloc().  (The exception is when
// initializing the allocator; see kinit above.)
void
kfree(void *pa)
{
    800009e4:	1101                	addi	sp,sp,-32
    800009e6:	ec06                	sd	ra,24(sp)
    800009e8:	e822                	sd	s0,16(sp)
    800009ea:	e426                	sd	s1,8(sp)
    800009ec:	e04a                	sd	s2,0(sp)
    800009ee:	1000                	addi	s0,sp,32
  struct run *r;

  if(((uint64)pa % PGSIZE) != 0 || (char*)pa < end || (uint64)pa >= PHYSTOP)
    800009f0:	03451793          	slli	a5,a0,0x34
    800009f4:	ebb9                	bnez	a5,80000a4a <kfree+0x66>
    800009f6:	84aa                	mv	s1,a0
    800009f8:	00026797          	auipc	a5,0x26
    800009fc:	c6078793          	addi	a5,a5,-928 # 80026658 <end>
    80000a00:	04f56563          	bltu	a0,a5,80000a4a <kfree+0x66>
    80000a04:	47c5                	li	a5,17
    80000a06:	07ee                	slli	a5,a5,0x1b
    80000a08:	04f57163          	bgeu	a0,a5,80000a4a <kfree+0x66>
    panic("kfree");

  // Fill with junk to catch dangling refs.
  memset(pa, 1, PGSIZE);
    80000a0c:	6605                	lui	a2,0x1
    80000a0e:	4585                	li	a1,1
    80000a10:	00000097          	auipc	ra,0x0
    80000a14:	2bc080e7          	jalr	700(ra) # 80000ccc <memset>

  r = (struct run*)pa;

  acquire(&kmem.lock);
    80000a18:	00011917          	auipc	s2,0x11
    80000a1c:	86890913          	addi	s2,s2,-1944 # 80011280 <kmem>
    80000a20:	854a                	mv	a0,s2
    80000a22:	00000097          	auipc	ra,0x0
    80000a26:	1ae080e7          	jalr	430(ra) # 80000bd0 <acquire>
  r->next = kmem.freelist;
    80000a2a:	01893783          	ld	a5,24(s2)
    80000a2e:	e09c                	sd	a5,0(s1)
  kmem.freelist = r;
    80000a30:	00993c23          	sd	s1,24(s2)
  release(&kmem.lock);
    80000a34:	854a                	mv	a0,s2
    80000a36:	00000097          	auipc	ra,0x0
    80000a3a:	24e080e7          	jalr	590(ra) # 80000c84 <release>
}
    80000a3e:	60e2                	ld	ra,24(sp)
    80000a40:	6442                	ld	s0,16(sp)
    80000a42:	64a2                	ld	s1,8(sp)
    80000a44:	6902                	ld	s2,0(sp)
    80000a46:	6105                	addi	sp,sp,32
    80000a48:	8082                	ret
    panic("kfree");
    80000a4a:	00007517          	auipc	a0,0x7
    80000a4e:	61650513          	addi	a0,a0,1558 # 80008060 <digits+0x20>
    80000a52:	00000097          	auipc	ra,0x0
    80000a56:	ae6080e7          	jalr	-1306(ra) # 80000538 <panic>

0000000080000a5a <freerange>:
{
    80000a5a:	7179                	addi	sp,sp,-48
    80000a5c:	f406                	sd	ra,40(sp)
    80000a5e:	f022                	sd	s0,32(sp)
    80000a60:	ec26                	sd	s1,24(sp)
    80000a62:	e84a                	sd	s2,16(sp)
    80000a64:	e44e                	sd	s3,8(sp)
    80000a66:	e052                	sd	s4,0(sp)
    80000a68:	1800                	addi	s0,sp,48
  p = (char*)PGROUNDUP((uint64)pa_start);
    80000a6a:	6785                	lui	a5,0x1
    80000a6c:	fff78493          	addi	s1,a5,-1 # fff <_entry-0x7ffff001>
    80000a70:	94aa                	add	s1,s1,a0
    80000a72:	757d                	lui	a0,0xfffff
    80000a74:	8ce9                	and	s1,s1,a0
  for(; p + PGSIZE <= (char*)pa_end; p += PGSIZE)
    80000a76:	94be                	add	s1,s1,a5
    80000a78:	0095ee63          	bltu	a1,s1,80000a94 <freerange+0x3a>
    80000a7c:	892e                	mv	s2,a1
    kfree(p);
    80000a7e:	7a7d                	lui	s4,0xfffff
  for(; p + PGSIZE <= (char*)pa_end; p += PGSIZE)
    80000a80:	6985                	lui	s3,0x1
    kfree(p);
    80000a82:	01448533          	add	a0,s1,s4
    80000a86:	00000097          	auipc	ra,0x0
    80000a8a:	f5e080e7          	jalr	-162(ra) # 800009e4 <kfree>
  for(; p + PGSIZE <= (char*)pa_end; p += PGSIZE)
    80000a8e:	94ce                	add	s1,s1,s3
    80000a90:	fe9979e3          	bgeu	s2,s1,80000a82 <freerange+0x28>
}
    80000a94:	70a2                	ld	ra,40(sp)
    80000a96:	7402                	ld	s0,32(sp)
    80000a98:	64e2                	ld	s1,24(sp)
    80000a9a:	6942                	ld	s2,16(sp)
    80000a9c:	69a2                	ld	s3,8(sp)
    80000a9e:	6a02                	ld	s4,0(sp)
    80000aa0:	6145                	addi	sp,sp,48
    80000aa2:	8082                	ret

0000000080000aa4 <kinit>:
{
    80000aa4:	1141                	addi	sp,sp,-16
    80000aa6:	e406                	sd	ra,8(sp)
    80000aa8:	e022                	sd	s0,0(sp)
    80000aaa:	0800                	addi	s0,sp,16
  initlock(&kmem.lock, "kmem");
    80000aac:	00007597          	auipc	a1,0x7
    80000ab0:	5bc58593          	addi	a1,a1,1468 # 80008068 <digits+0x28>
    80000ab4:	00010517          	auipc	a0,0x10
    80000ab8:	7cc50513          	addi	a0,a0,1996 # 80011280 <kmem>
    80000abc:	00000097          	auipc	ra,0x0
    80000ac0:	084080e7          	jalr	132(ra) # 80000b40 <initlock>
  freerange(end, (void*)PHYSTOP);
    80000ac4:	45c5                	li	a1,17
    80000ac6:	05ee                	slli	a1,a1,0x1b
    80000ac8:	00026517          	auipc	a0,0x26
    80000acc:	b9050513          	addi	a0,a0,-1136 # 80026658 <end>
    80000ad0:	00000097          	auipc	ra,0x0
    80000ad4:	f8a080e7          	jalr	-118(ra) # 80000a5a <freerange>
}
    80000ad8:	60a2                	ld	ra,8(sp)
    80000ada:	6402                	ld	s0,0(sp)
    80000adc:	0141                	addi	sp,sp,16
    80000ade:	8082                	ret

0000000080000ae0 <kalloc>:
// Allocate one 4096-byte page of physical memory.
// Returns a pointer that the kernel can use.
// Returns 0 if the memory cannot be allocated.
void *
kalloc(void)
{
    80000ae0:	1101                	addi	sp,sp,-32
    80000ae2:	ec06                	sd	ra,24(sp)
    80000ae4:	e822                	sd	s0,16(sp)
    80000ae6:	e426                	sd	s1,8(sp)
    80000ae8:	1000                	addi	s0,sp,32
  struct run *r;

  acquire(&kmem.lock);
    80000aea:	00010497          	auipc	s1,0x10
    80000aee:	79648493          	addi	s1,s1,1942 # 80011280 <kmem>
    80000af2:	8526                	mv	a0,s1
    80000af4:	00000097          	auipc	ra,0x0
    80000af8:	0dc080e7          	jalr	220(ra) # 80000bd0 <acquire>
  r = kmem.freelist;
    80000afc:	6c84                	ld	s1,24(s1)
  if(r)
    80000afe:	c885                	beqz	s1,80000b2e <kalloc+0x4e>
    kmem.freelist = r->next;
    80000b00:	609c                	ld	a5,0(s1)
    80000b02:	00010517          	auipc	a0,0x10
    80000b06:	77e50513          	addi	a0,a0,1918 # 80011280 <kmem>
    80000b0a:	ed1c                	sd	a5,24(a0)
  release(&kmem.lock);
    80000b0c:	00000097          	auipc	ra,0x0
    80000b10:	178080e7          	jalr	376(ra) # 80000c84 <release>

  if(r)
    memset((char*)r, 5, PGSIZE); // fill with junk
    80000b14:	6605                	lui	a2,0x1
    80000b16:	4595                	li	a1,5
    80000b18:	8526                	mv	a0,s1
    80000b1a:	00000097          	auipc	ra,0x0
    80000b1e:	1b2080e7          	jalr	434(ra) # 80000ccc <memset>
  return (void*)r;
}
    80000b22:	8526                	mv	a0,s1
    80000b24:	60e2                	ld	ra,24(sp)
    80000b26:	6442                	ld	s0,16(sp)
    80000b28:	64a2                	ld	s1,8(sp)
    80000b2a:	6105                	addi	sp,sp,32
    80000b2c:	8082                	ret
  release(&kmem.lock);
    80000b2e:	00010517          	auipc	a0,0x10
    80000b32:	75250513          	addi	a0,a0,1874 # 80011280 <kmem>
    80000b36:	00000097          	auipc	ra,0x0
    80000b3a:	14e080e7          	jalr	334(ra) # 80000c84 <release>
  if(r)
    80000b3e:	b7d5                	j	80000b22 <kalloc+0x42>

0000000080000b40 <initlock>:
#include "proc.h"
#include "defs.h"

void
initlock(struct spinlock *lk, char *name)
{
    80000b40:	1141                	addi	sp,sp,-16
    80000b42:	e422                	sd	s0,8(sp)
    80000b44:	0800                	addi	s0,sp,16
  lk->name = name;
    80000b46:	e50c                	sd	a1,8(a0)
  lk->locked = 0;
    80000b48:	00052023          	sw	zero,0(a0)
  lk->cpu = 0;
    80000b4c:	00053823          	sd	zero,16(a0)
}
    80000b50:	6422                	ld	s0,8(sp)
    80000b52:	0141                	addi	sp,sp,16
    80000b54:	8082                	ret

0000000080000b56 <holding>:
// Interrupts must be off.
int
holding(struct spinlock *lk)
{
  int r;
  r = (lk->locked && lk->cpu == mycpu());
    80000b56:	411c                	lw	a5,0(a0)
    80000b58:	e399                	bnez	a5,80000b5e <holding+0x8>
    80000b5a:	4501                	li	a0,0
  return r;
}
    80000b5c:	8082                	ret
{
    80000b5e:	1101                	addi	sp,sp,-32
    80000b60:	ec06                	sd	ra,24(sp)
    80000b62:	e822                	sd	s0,16(sp)
    80000b64:	e426                	sd	s1,8(sp)
    80000b66:	1000                	addi	s0,sp,32
  r = (lk->locked && lk->cpu == mycpu());
    80000b68:	6904                	ld	s1,16(a0)
    80000b6a:	00001097          	auipc	ra,0x1
    80000b6e:	ee0080e7          	jalr	-288(ra) # 80001a4a <mycpu>
    80000b72:	40a48533          	sub	a0,s1,a0
    80000b76:	00153513          	seqz	a0,a0
}
    80000b7a:	60e2                	ld	ra,24(sp)
    80000b7c:	6442                	ld	s0,16(sp)
    80000b7e:	64a2                	ld	s1,8(sp)
    80000b80:	6105                	addi	sp,sp,32
    80000b82:	8082                	ret

0000000080000b84 <push_off>:
// it takes two pop_off()s to undo two push_off()s.  Also, if interrupts
// are initially off, then push_off, pop_off leaves them off.

void
push_off(void)
{
    80000b84:	1101                	addi	sp,sp,-32
    80000b86:	ec06                	sd	ra,24(sp)
    80000b88:	e822                	sd	s0,16(sp)
    80000b8a:	e426                	sd	s1,8(sp)
    80000b8c:	1000                	addi	s0,sp,32
  asm volatile("csrr %0, sstatus" : "=r" (x) );
    80000b8e:	100024f3          	csrr	s1,sstatus
    80000b92:	100027f3          	csrr	a5,sstatus
  w_sstatus(r_sstatus() & ~SSTATUS_SIE);
    80000b96:	9bf5                	andi	a5,a5,-3
  asm volatile("csrw sstatus, %0" : : "r" (x));
    80000b98:	10079073          	csrw	sstatus,a5
  int old = intr_get();

  intr_off();
  if(mycpu()->noff == 0)
    80000b9c:	00001097          	auipc	ra,0x1
    80000ba0:	eae080e7          	jalr	-338(ra) # 80001a4a <mycpu>
    80000ba4:	5d3c                	lw	a5,120(a0)
    80000ba6:	cf89                	beqz	a5,80000bc0 <push_off+0x3c>
    mycpu()->intena = old;
  mycpu()->noff += 1;
    80000ba8:	00001097          	auipc	ra,0x1
    80000bac:	ea2080e7          	jalr	-350(ra) # 80001a4a <mycpu>
    80000bb0:	5d3c                	lw	a5,120(a0)
    80000bb2:	2785                	addiw	a5,a5,1
    80000bb4:	dd3c                	sw	a5,120(a0)
}
    80000bb6:	60e2                	ld	ra,24(sp)
    80000bb8:	6442                	ld	s0,16(sp)
    80000bba:	64a2                	ld	s1,8(sp)
    80000bbc:	6105                	addi	sp,sp,32
    80000bbe:	8082                	ret
    mycpu()->intena = old;
    80000bc0:	00001097          	auipc	ra,0x1
    80000bc4:	e8a080e7          	jalr	-374(ra) # 80001a4a <mycpu>
  return (x & SSTATUS_SIE) != 0;
    80000bc8:	8085                	srli	s1,s1,0x1
    80000bca:	8885                	andi	s1,s1,1
    80000bcc:	dd64                	sw	s1,124(a0)
    80000bce:	bfe9                	j	80000ba8 <push_off+0x24>

0000000080000bd0 <acquire>:
{
    80000bd0:	1101                	addi	sp,sp,-32
    80000bd2:	ec06                	sd	ra,24(sp)
    80000bd4:	e822                	sd	s0,16(sp)
    80000bd6:	e426                	sd	s1,8(sp)
    80000bd8:	1000                	addi	s0,sp,32
    80000bda:	84aa                	mv	s1,a0
  push_off(); // disable interrupts to avoid deadlock.
    80000bdc:	00000097          	auipc	ra,0x0
    80000be0:	fa8080e7          	jalr	-88(ra) # 80000b84 <push_off>
  if(holding(lk))
    80000be4:	8526                	mv	a0,s1
    80000be6:	00000097          	auipc	ra,0x0
    80000bea:	f70080e7          	jalr	-144(ra) # 80000b56 <holding>
  while(__sync_lock_test_and_set(&lk->locked, 1) != 0)
    80000bee:	4705                	li	a4,1
  if(holding(lk))
    80000bf0:	e115                	bnez	a0,80000c14 <acquire+0x44>
  while(__sync_lock_test_and_set(&lk->locked, 1) != 0)
    80000bf2:	87ba                	mv	a5,a4
    80000bf4:	0cf4a7af          	amoswap.w.aq	a5,a5,(s1)
    80000bf8:	2781                	sext.w	a5,a5
    80000bfa:	ffe5                	bnez	a5,80000bf2 <acquire+0x22>
  __sync_synchronize();
    80000bfc:	0ff0000f          	fence
  lk->cpu = mycpu();
    80000c00:	00001097          	auipc	ra,0x1
    80000c04:	e4a080e7          	jalr	-438(ra) # 80001a4a <mycpu>
    80000c08:	e888                	sd	a0,16(s1)
}
    80000c0a:	60e2                	ld	ra,24(sp)
    80000c0c:	6442                	ld	s0,16(sp)
    80000c0e:	64a2                	ld	s1,8(sp)
    80000c10:	6105                	addi	sp,sp,32
    80000c12:	8082                	ret
    panic("acquire");
    80000c14:	00007517          	auipc	a0,0x7
    80000c18:	45c50513          	addi	a0,a0,1116 # 80008070 <digits+0x30>
    80000c1c:	00000097          	auipc	ra,0x0
    80000c20:	91c080e7          	jalr	-1764(ra) # 80000538 <panic>

0000000080000c24 <pop_off>:

void
pop_off(void)
{
    80000c24:	1141                	addi	sp,sp,-16
    80000c26:	e406                	sd	ra,8(sp)
    80000c28:	e022                	sd	s0,0(sp)
    80000c2a:	0800                	addi	s0,sp,16
  struct cpu *c = mycpu();
    80000c2c:	00001097          	auipc	ra,0x1
    80000c30:	e1e080e7          	jalr	-482(ra) # 80001a4a <mycpu>
  asm volatile("csrr %0, sstatus" : "=r" (x) );
    80000c34:	100027f3          	csrr	a5,sstatus
  return (x & SSTATUS_SIE) != 0;
    80000c38:	8b89                	andi	a5,a5,2
  if(intr_get())
    80000c3a:	e78d                	bnez	a5,80000c64 <pop_off+0x40>
    panic("pop_off - interruptible");
  if(c->noff < 1)
    80000c3c:	5d3c                	lw	a5,120(a0)
    80000c3e:	02f05b63          	blez	a5,80000c74 <pop_off+0x50>
    panic("pop_off");
  c->noff -= 1;
    80000c42:	37fd                	addiw	a5,a5,-1
    80000c44:	0007871b          	sext.w	a4,a5
    80000c48:	dd3c                	sw	a5,120(a0)
  if(c->noff == 0 && c->intena)
    80000c4a:	eb09                	bnez	a4,80000c5c <pop_off+0x38>
    80000c4c:	5d7c                	lw	a5,124(a0)
    80000c4e:	c799                	beqz	a5,80000c5c <pop_off+0x38>
  asm volatile("csrr %0, sstatus" : "=r" (x) );
    80000c50:	100027f3          	csrr	a5,sstatus
  w_sstatus(r_sstatus() | SSTATUS_SIE);
    80000c54:	0027e793          	ori	a5,a5,2
  asm volatile("csrw sstatus, %0" : : "r" (x));
    80000c58:	10079073          	csrw	sstatus,a5
    intr_on();
}
    80000c5c:	60a2                	ld	ra,8(sp)
    80000c5e:	6402                	ld	s0,0(sp)
    80000c60:	0141                	addi	sp,sp,16
    80000c62:	8082                	ret
    panic("pop_off - interruptible");
    80000c64:	00007517          	auipc	a0,0x7
    80000c68:	41450513          	addi	a0,a0,1044 # 80008078 <digits+0x38>
    80000c6c:	00000097          	auipc	ra,0x0
    80000c70:	8cc080e7          	jalr	-1844(ra) # 80000538 <panic>
    panic("pop_off");
    80000c74:	00007517          	auipc	a0,0x7
    80000c78:	41c50513          	addi	a0,a0,1052 # 80008090 <digits+0x50>
    80000c7c:	00000097          	auipc	ra,0x0
    80000c80:	8bc080e7          	jalr	-1860(ra) # 80000538 <panic>

0000000080000c84 <release>:
{
    80000c84:	1101                	addi	sp,sp,-32
    80000c86:	ec06                	sd	ra,24(sp)
    80000c88:	e822                	sd	s0,16(sp)
    80000c8a:	e426                	sd	s1,8(sp)
    80000c8c:	1000                	addi	s0,sp,32
    80000c8e:	84aa                	mv	s1,a0
  if(!holding(lk))
    80000c90:	00000097          	auipc	ra,0x0
    80000c94:	ec6080e7          	jalr	-314(ra) # 80000b56 <holding>
    80000c98:	c115                	beqz	a0,80000cbc <release+0x38>
  lk->cpu = 0;
    80000c9a:	0004b823          	sd	zero,16(s1)
  __sync_synchronize();
    80000c9e:	0ff0000f          	fence
  __sync_lock_release(&lk->locked);
    80000ca2:	0f50000f          	fence	iorw,ow
    80000ca6:	0804a02f          	amoswap.w	zero,zero,(s1)
  pop_off();
    80000caa:	00000097          	auipc	ra,0x0
    80000cae:	f7a080e7          	jalr	-134(ra) # 80000c24 <pop_off>
}
    80000cb2:	60e2                	ld	ra,24(sp)
    80000cb4:	6442                	ld	s0,16(sp)
    80000cb6:	64a2                	ld	s1,8(sp)
    80000cb8:	6105                	addi	sp,sp,32
    80000cba:	8082                	ret
    panic("release");
    80000cbc:	00007517          	auipc	a0,0x7
    80000cc0:	3dc50513          	addi	a0,a0,988 # 80008098 <digits+0x58>
    80000cc4:	00000097          	auipc	ra,0x0
    80000cc8:	874080e7          	jalr	-1932(ra) # 80000538 <panic>

0000000080000ccc <memset>:
#include "types.h"


void*
memset(void *dst, int c, uint n)
{
    80000ccc:	1141                	addi	sp,sp,-16
    80000cce:	e422                	sd	s0,8(sp)
    80000cd0:	0800                	addi	s0,sp,16
  char *cdst = (char *) dst;
  int i;
  for(i = 0; i < n; i++){
    80000cd2:	ca19                	beqz	a2,80000ce8 <memset+0x1c>
    80000cd4:	87aa                	mv	a5,a0
    80000cd6:	1602                	slli	a2,a2,0x20
    80000cd8:	9201                	srli	a2,a2,0x20
    80000cda:	00a60733          	add	a4,a2,a0
    cdst[i] = c;
    80000cde:	00b78023          	sb	a1,0(a5)
  for(i = 0; i < n; i++){
    80000ce2:	0785                	addi	a5,a5,1
    80000ce4:	fee79de3          	bne	a5,a4,80000cde <memset+0x12>
  }
  return dst;
}
    80000ce8:	6422                	ld	s0,8(sp)
    80000cea:	0141                	addi	sp,sp,16
    80000cec:	8082                	ret

0000000080000cee <memcmp>:

int
memcmp(const void *v1, const void *v2, uint n)
{
    80000cee:	1141                	addi	sp,sp,-16
    80000cf0:	e422                	sd	s0,8(sp)
    80000cf2:	0800                	addi	s0,sp,16
  const uchar *s1, *s2;

  s1 = v1;
  s2 = v2;
  while(n-- > 0){
    80000cf4:	ca05                	beqz	a2,80000d24 <memcmp+0x36>
    80000cf6:	fff6069b          	addiw	a3,a2,-1
    80000cfa:	1682                	slli	a3,a3,0x20
    80000cfc:	9281                	srli	a3,a3,0x20
    80000cfe:	0685                	addi	a3,a3,1
    80000d00:	96aa                	add	a3,a3,a0
    if(*s1 != *s2)
    80000d02:	00054783          	lbu	a5,0(a0)
    80000d06:	0005c703          	lbu	a4,0(a1)
    80000d0a:	00e79863          	bne	a5,a4,80000d1a <memcmp+0x2c>
      return *s1 - *s2;
    s1++, s2++;
    80000d0e:	0505                	addi	a0,a0,1
    80000d10:	0585                	addi	a1,a1,1
  while(n-- > 0){
    80000d12:	fed518e3          	bne	a0,a3,80000d02 <memcmp+0x14>
  }

  return 0;
    80000d16:	4501                	li	a0,0
    80000d18:	a019                	j	80000d1e <memcmp+0x30>
      return *s1 - *s2;
    80000d1a:	40e7853b          	subw	a0,a5,a4
}
    80000d1e:	6422                	ld	s0,8(sp)
    80000d20:	0141                	addi	sp,sp,16
    80000d22:	8082                	ret
  return 0;
    80000d24:	4501                	li	a0,0
    80000d26:	bfe5                	j	80000d1e <memcmp+0x30>

0000000080000d28 <memmove>:

void*
memmove(void *dst, const void *src, uint n)
{
    80000d28:	1141                	addi	sp,sp,-16
    80000d2a:	e422                	sd	s0,8(sp)
    80000d2c:	0800                	addi	s0,sp,16
  char *d;

  s = src;
  d = dst;
  
  if(s < d && s + n > d){
    80000d2e:	02a5e563          	bltu	a1,a0,80000d58 <memmove+0x30>
    s += n;
    d += n;
    while(n-- > 0)
      *--d = *--s;
  } else
    while(n-- > 0)
    80000d32:	fff6069b          	addiw	a3,a2,-1
    80000d36:	ce11                	beqz	a2,80000d52 <memmove+0x2a>
    80000d38:	1682                	slli	a3,a3,0x20
    80000d3a:	9281                	srli	a3,a3,0x20
    80000d3c:	0685                	addi	a3,a3,1
    80000d3e:	96ae                	add	a3,a3,a1
    80000d40:	87aa                	mv	a5,a0
      *d++ = *s++;
    80000d42:	0585                	addi	a1,a1,1
    80000d44:	0785                	addi	a5,a5,1
    80000d46:	fff5c703          	lbu	a4,-1(a1)
    80000d4a:	fee78fa3          	sb	a4,-1(a5)
    while(n-- > 0)
    80000d4e:	fed59ae3          	bne	a1,a3,80000d42 <memmove+0x1a>

  return dst;
}
    80000d52:	6422                	ld	s0,8(sp)
    80000d54:	0141                	addi	sp,sp,16
    80000d56:	8082                	ret
  if(s < d && s + n > d){
    80000d58:	02061713          	slli	a4,a2,0x20
    80000d5c:	9301                	srli	a4,a4,0x20
    80000d5e:	00e587b3          	add	a5,a1,a4
    80000d62:	fcf578e3          	bgeu	a0,a5,80000d32 <memmove+0xa>
    d += n;
    80000d66:	972a                	add	a4,a4,a0
    while(n-- > 0)
    80000d68:	fff6069b          	addiw	a3,a2,-1
    80000d6c:	d27d                	beqz	a2,80000d52 <memmove+0x2a>
    80000d6e:	02069613          	slli	a2,a3,0x20
    80000d72:	9201                	srli	a2,a2,0x20
    80000d74:	fff64613          	not	a2,a2
    80000d78:	963e                	add	a2,a2,a5
      *--d = *--s;
    80000d7a:	17fd                	addi	a5,a5,-1
    80000d7c:	177d                	addi	a4,a4,-1
    80000d7e:	0007c683          	lbu	a3,0(a5)
    80000d82:	00d70023          	sb	a3,0(a4)
    while(n-- > 0)
    80000d86:	fef61ae3          	bne	a2,a5,80000d7a <memmove+0x52>
    80000d8a:	b7e1                	j	80000d52 <memmove+0x2a>

0000000080000d8c <memcpy>:

// memcpy exists to placate GCC.  Use memmove.
void*
memcpy(void *dst, const void *src, uint n)
{
    80000d8c:	1141                	addi	sp,sp,-16
    80000d8e:	e406                	sd	ra,8(sp)
    80000d90:	e022                	sd	s0,0(sp)
    80000d92:	0800                	addi	s0,sp,16
  return memmove(dst, src, n);
    80000d94:	00000097          	auipc	ra,0x0
    80000d98:	f94080e7          	jalr	-108(ra) # 80000d28 <memmove>
}
    80000d9c:	60a2                	ld	ra,8(sp)
    80000d9e:	6402                	ld	s0,0(sp)
    80000da0:	0141                	addi	sp,sp,16
    80000da2:	8082                	ret

0000000080000da4 <strncmp>:

int
strncmp(const char *p, const char *q, uint n)
{
    80000da4:	1141                	addi	sp,sp,-16
    80000da6:	e422                	sd	s0,8(sp)
    80000da8:	0800                	addi	s0,sp,16
  while(n > 0 && *p && *p == *q)
    80000daa:	ce11                	beqz	a2,80000dc6 <strncmp+0x22>
    80000dac:	00054783          	lbu	a5,0(a0)
    80000db0:	cf89                	beqz	a5,80000dca <strncmp+0x26>
    80000db2:	0005c703          	lbu	a4,0(a1)
    80000db6:	00f71a63          	bne	a4,a5,80000dca <strncmp+0x26>
    n--, p++, q++;
    80000dba:	367d                	addiw	a2,a2,-1
    80000dbc:	0505                	addi	a0,a0,1
    80000dbe:	0585                	addi	a1,a1,1
  while(n > 0 && *p && *p == *q)
    80000dc0:	f675                	bnez	a2,80000dac <strncmp+0x8>
  if(n == 0)
    return 0;
    80000dc2:	4501                	li	a0,0
    80000dc4:	a809                	j	80000dd6 <strncmp+0x32>
    80000dc6:	4501                	li	a0,0
    80000dc8:	a039                	j	80000dd6 <strncmp+0x32>
  if(n == 0)
    80000dca:	ca09                	beqz	a2,80000ddc <strncmp+0x38>
  return (uchar)*p - (uchar)*q;
    80000dcc:	00054503          	lbu	a0,0(a0)
    80000dd0:	0005c783          	lbu	a5,0(a1)
    80000dd4:	9d1d                	subw	a0,a0,a5
}
    80000dd6:	6422                	ld	s0,8(sp)
    80000dd8:	0141                	addi	sp,sp,16
    80000dda:	8082                	ret
    return 0;
    80000ddc:	4501                	li	a0,0
    80000dde:	bfe5                	j	80000dd6 <strncmp+0x32>

0000000080000de0 <strncpy>:

char*
strncpy(char *s, const char *t, int n)
{
    80000de0:	1141                	addi	sp,sp,-16
    80000de2:	e422                	sd	s0,8(sp)
    80000de4:	0800                	addi	s0,sp,16
  char *os;

  os = s;
  while(n-- > 0 && (*s++ = *t++) != 0)
    80000de6:	872a                	mv	a4,a0
    80000de8:	8832                	mv	a6,a2
    80000dea:	367d                	addiw	a2,a2,-1
    80000dec:	01005963          	blez	a6,80000dfe <strncpy+0x1e>
    80000df0:	0705                	addi	a4,a4,1
    80000df2:	0005c783          	lbu	a5,0(a1)
    80000df6:	fef70fa3          	sb	a5,-1(a4)
    80000dfa:	0585                	addi	a1,a1,1
    80000dfc:	f7f5                	bnez	a5,80000de8 <strncpy+0x8>
    ;
  while(n-- > 0)
    80000dfe:	86ba                	mv	a3,a4
    80000e00:	00c05c63          	blez	a2,80000e18 <strncpy+0x38>
    *s++ = 0;
    80000e04:	0685                	addi	a3,a3,1
    80000e06:	fe068fa3          	sb	zero,-1(a3)
  while(n-- > 0)
    80000e0a:	fff6c793          	not	a5,a3
    80000e0e:	9fb9                	addw	a5,a5,a4
    80000e10:	010787bb          	addw	a5,a5,a6
    80000e14:	fef048e3          	bgtz	a5,80000e04 <strncpy+0x24>
  return os;
}
    80000e18:	6422                	ld	s0,8(sp)
    80000e1a:	0141                	addi	sp,sp,16
    80000e1c:	8082                	ret

0000000080000e1e <safestrcpy>:

// Like strncpy but guaranteed to NUL-terminate.
char*
safestrcpy(char *s, const char *t, int n)
{
    80000e1e:	1141                	addi	sp,sp,-16
    80000e20:	e422                	sd	s0,8(sp)
    80000e22:	0800                	addi	s0,sp,16
  char *os;

  os = s;
  if(n <= 0)
    80000e24:	02c05363          	blez	a2,80000e4a <safestrcpy+0x2c>
    80000e28:	fff6069b          	addiw	a3,a2,-1
    80000e2c:	1682                	slli	a3,a3,0x20
    80000e2e:	9281                	srli	a3,a3,0x20
    80000e30:	96ae                	add	a3,a3,a1
    80000e32:	87aa                	mv	a5,a0
    return os;
  while(--n > 0 && (*s++ = *t++) != 0)
    80000e34:	00d58963          	beq	a1,a3,80000e46 <safestrcpy+0x28>
    80000e38:	0585                	addi	a1,a1,1
    80000e3a:	0785                	addi	a5,a5,1
    80000e3c:	fff5c703          	lbu	a4,-1(a1)
    80000e40:	fee78fa3          	sb	a4,-1(a5)
    80000e44:	fb65                	bnez	a4,80000e34 <safestrcpy+0x16>
    ;
  *s = 0;
    80000e46:	00078023          	sb	zero,0(a5)
  return os;
}
    80000e4a:	6422                	ld	s0,8(sp)
    80000e4c:	0141                	addi	sp,sp,16
    80000e4e:	8082                	ret

0000000080000e50 <strlen>:

int
strlen(const char *s)
{
    80000e50:	1141                	addi	sp,sp,-16
    80000e52:	e422                	sd	s0,8(sp)
    80000e54:	0800                	addi	s0,sp,16
  int n;

  for(n = 0; s[n]; n++)
    80000e56:	00054783          	lbu	a5,0(a0)
    80000e5a:	cf91                	beqz	a5,80000e76 <strlen+0x26>
    80000e5c:	0505                	addi	a0,a0,1
    80000e5e:	87aa                	mv	a5,a0
    80000e60:	4685                	li	a3,1
    80000e62:	9e89                	subw	a3,a3,a0
    80000e64:	00f6853b          	addw	a0,a3,a5
    80000e68:	0785                	addi	a5,a5,1
    80000e6a:	fff7c703          	lbu	a4,-1(a5)
    80000e6e:	fb7d                	bnez	a4,80000e64 <strlen+0x14>
    ;
  return n;
}
    80000e70:	6422                	ld	s0,8(sp)
    80000e72:	0141                	addi	sp,sp,16
    80000e74:	8082                	ret
  for(n = 0; s[n]; n++)
    80000e76:	4501                	li	a0,0
    80000e78:	bfe5                	j	80000e70 <strlen+0x20>

0000000080000e7a <main>:
volatile static int started = 0;

// start() jumps here in supervisor mode on all CPUs.
void
main()
{
    80000e7a:	1141                	addi	sp,sp,-16
    80000e7c:	e406                	sd	ra,8(sp)
    80000e7e:	e022                	sd	s0,0(sp)
    80000e80:	0800                	addi	s0,sp,16
  if(cpuid() == 0){
    80000e82:	00001097          	auipc	ra,0x1
    80000e86:	bb8080e7          	jalr	-1096(ra) # 80001a3a <cpuid>
    virtio_disk_init(); // emulated hard disk
    userinit();      // first user process
    __sync_synchronize();
    started = 1;
  } else {
    while(started == 0)
    80000e8a:	00008717          	auipc	a4,0x8
    80000e8e:	18e70713          	addi	a4,a4,398 # 80009018 <started>
  if(cpuid() == 0){
    80000e92:	c139                	beqz	a0,80000ed8 <main+0x5e>
    while(started == 0)
    80000e94:	431c                	lw	a5,0(a4)
    80000e96:	2781                	sext.w	a5,a5
    80000e98:	dff5                	beqz	a5,80000e94 <main+0x1a>
      ;
    __sync_synchronize();
    80000e9a:	0ff0000f          	fence
    printf("hart %d starting\n", cpuid());
    80000e9e:	00001097          	auipc	ra,0x1
    80000ea2:	b9c080e7          	jalr	-1124(ra) # 80001a3a <cpuid>
    80000ea6:	85aa                	mv	a1,a0
    80000ea8:	00007517          	auipc	a0,0x7
    80000eac:	21050513          	addi	a0,a0,528 # 800080b8 <digits+0x78>
    80000eb0:	fffff097          	auipc	ra,0xfffff
    80000eb4:	6d2080e7          	jalr	1746(ra) # 80000582 <printf>
    kvminithart();    // turn on paging
    80000eb8:	00000097          	auipc	ra,0x0
    80000ebc:	0d8080e7          	jalr	216(ra) # 80000f90 <kvminithart>
    trapinithart();   // install kernel trap vector
    80000ec0:	00001097          	auipc	ra,0x1
    80000ec4:	7f8080e7          	jalr	2040(ra) # 800026b8 <trapinithart>
    plicinithart();   // ask PLIC for device interrupts
    80000ec8:	00005097          	auipc	ra,0x5
    80000ecc:	f14080e7          	jalr	-236(ra) # 80005ddc <plicinithart>
  }

  scheduler();        
    80000ed0:	00001097          	auipc	ra,0x1
    80000ed4:	0a4080e7          	jalr	164(ra) # 80001f74 <scheduler>
    consoleinit();
    80000ed8:	fffff097          	auipc	ra,0xfffff
    80000edc:	572080e7          	jalr	1394(ra) # 8000044a <consoleinit>
    printfinit();
    80000ee0:	00000097          	auipc	ra,0x0
    80000ee4:	882080e7          	jalr	-1918(ra) # 80000762 <printfinit>
    printf("\n");
    80000ee8:	00008517          	auipc	a0,0x8
    80000eec:	9b850513          	addi	a0,a0,-1608 # 800088a0 <syscalls+0x470>
    80000ef0:	fffff097          	auipc	ra,0xfffff
    80000ef4:	692080e7          	jalr	1682(ra) # 80000582 <printf>
    printf("xv6 kernel is booting\n");
    80000ef8:	00007517          	auipc	a0,0x7
    80000efc:	1a850513          	addi	a0,a0,424 # 800080a0 <digits+0x60>
    80000f00:	fffff097          	auipc	ra,0xfffff
    80000f04:	682080e7          	jalr	1666(ra) # 80000582 <printf>
    printf("\n");
    80000f08:	00008517          	auipc	a0,0x8
    80000f0c:	99850513          	addi	a0,a0,-1640 # 800088a0 <syscalls+0x470>
    80000f10:	fffff097          	auipc	ra,0xfffff
    80000f14:	672080e7          	jalr	1650(ra) # 80000582 <printf>
    kinit();         // physical page allocator
    80000f18:	00000097          	auipc	ra,0x0
    80000f1c:	b8c080e7          	jalr	-1140(ra) # 80000aa4 <kinit>
    kvminit();       // create kernel page table
    80000f20:	00000097          	auipc	ra,0x0
    80000f24:	310080e7          	jalr	784(ra) # 80001230 <kvminit>
    kvminithart();   // turn on paging
    80000f28:	00000097          	auipc	ra,0x0
    80000f2c:	068080e7          	jalr	104(ra) # 80000f90 <kvminithart>
    procinit();      // process table
    80000f30:	00001097          	auipc	ra,0x1
    80000f34:	a5a080e7          	jalr	-1446(ra) # 8000198a <procinit>
    trapinit();      // trap vectors
    80000f38:	00001097          	auipc	ra,0x1
    80000f3c:	758080e7          	jalr	1880(ra) # 80002690 <trapinit>
    trapinithart();  // install kernel trap vector
    80000f40:	00001097          	auipc	ra,0x1
    80000f44:	778080e7          	jalr	1912(ra) # 800026b8 <trapinithart>
    plicinit();      // set up interrupt controller
    80000f48:	00005097          	auipc	ra,0x5
    80000f4c:	e7e080e7          	jalr	-386(ra) # 80005dc6 <plicinit>
    plicinithart();  // ask PLIC for device interrupts
    80000f50:	00005097          	auipc	ra,0x5
    80000f54:	e8c080e7          	jalr	-372(ra) # 80005ddc <plicinithart>
    binit();         // buffer cache
    80000f58:	00002097          	auipc	ra,0x2
    80000f5c:	ea0080e7          	jalr	-352(ra) # 80002df8 <binit>
    iinit();         // inode cache
    80000f60:	00002097          	auipc	ra,0x2
    80000f64:	532080e7          	jalr	1330(ra) # 80003492 <iinit>
    fileinit();      // file table
    80000f68:	00003097          	auipc	ra,0x3
    80000f6c:	4e0080e7          	jalr	1248(ra) # 80004448 <fileinit>
    virtio_disk_init(); // emulated hard disk
    80000f70:	00005097          	auipc	ra,0x5
    80000f74:	f8e080e7          	jalr	-114(ra) # 80005efe <virtio_disk_init>
    userinit();      // first user process
    80000f78:	00001097          	auipc	ra,0x1
    80000f7c:	dc6080e7          	jalr	-570(ra) # 80001d3e <userinit>
    __sync_synchronize();
    80000f80:	0ff0000f          	fence
    started = 1;
    80000f84:	4785                	li	a5,1
    80000f86:	00008717          	auipc	a4,0x8
    80000f8a:	08f72923          	sw	a5,146(a4) # 80009018 <started>
    80000f8e:	b789                	j	80000ed0 <main+0x56>

0000000080000f90 <kvminithart>:

// Switch h/w page table register to the kernel's page table,
// and enable paging.
void
kvminithart()
{
    80000f90:	1141                	addi	sp,sp,-16
    80000f92:	e422                	sd	s0,8(sp)
    80000f94:	0800                	addi	s0,sp,16
  w_satp(MAKE_SATP(kernel_pagetable));
    80000f96:	00008797          	auipc	a5,0x8
    80000f9a:	08a7b783          	ld	a5,138(a5) # 80009020 <kernel_pagetable>
    80000f9e:	83b1                	srli	a5,a5,0xc
    80000fa0:	577d                	li	a4,-1
    80000fa2:	177e                	slli	a4,a4,0x3f
    80000fa4:	8fd9                	or	a5,a5,a4
  asm volatile("csrw satp, %0" : : "r" (x));
    80000fa6:	18079073          	csrw	satp,a5
// flush the TLB.
static inline void
sfence_vma()
{
  // the zero, zero means flush all TLB entries.
  asm volatile("sfence.vma zero, zero");
    80000faa:	12000073          	sfence.vma
  sfence_vma();
}
    80000fae:	6422                	ld	s0,8(sp)
    80000fb0:	0141                	addi	sp,sp,16
    80000fb2:	8082                	ret

0000000080000fb4 <walk>:
//   21..29 -- 9 bits of level-1 index.
//   12..20 -- 9 bits of level-0 index.
//    0..11 -- 12 bits of byte offset within the page.
pte_t *
walk(pagetable_t pagetable, uint64 va, int alloc)
{
    80000fb4:	7139                	addi	sp,sp,-64
    80000fb6:	fc06                	sd	ra,56(sp)
    80000fb8:	f822                	sd	s0,48(sp)
    80000fba:	f426                	sd	s1,40(sp)
    80000fbc:	f04a                	sd	s2,32(sp)
    80000fbe:	ec4e                	sd	s3,24(sp)
    80000fc0:	e852                	sd	s4,16(sp)
    80000fc2:	e456                	sd	s5,8(sp)
    80000fc4:	e05a                	sd	s6,0(sp)
    80000fc6:	0080                	addi	s0,sp,64
    80000fc8:	84aa                	mv	s1,a0
    80000fca:	89ae                	mv	s3,a1
    80000fcc:	8ab2                	mv	s5,a2
  if(va >= MAXVA)
    80000fce:	57fd                	li	a5,-1
    80000fd0:	83e9                	srli	a5,a5,0x1a
    80000fd2:	4a79                	li	s4,30
    panic("walk");

  for(int level = 2; level > 0; level--) {
    80000fd4:	4b31                	li	s6,12
  if(va >= MAXVA)
    80000fd6:	04b7f263          	bgeu	a5,a1,8000101a <walk+0x66>
    panic("walk");
    80000fda:	00007517          	auipc	a0,0x7
    80000fde:	0f650513          	addi	a0,a0,246 # 800080d0 <digits+0x90>
    80000fe2:	fffff097          	auipc	ra,0xfffff
    80000fe6:	556080e7          	jalr	1366(ra) # 80000538 <panic>
    pte_t *pte = &pagetable[PX(level, va)];
    if(*pte & PTE_V) {
      pagetable = (pagetable_t)PTE2PA(*pte);
    } else {
      if(!alloc || (pagetable = (pde_t*)kalloc()) == 0)
    80000fea:	060a8663          	beqz	s5,80001056 <walk+0xa2>
    80000fee:	00000097          	auipc	ra,0x0
    80000ff2:	af2080e7          	jalr	-1294(ra) # 80000ae0 <kalloc>
    80000ff6:	84aa                	mv	s1,a0
    80000ff8:	c529                	beqz	a0,80001042 <walk+0x8e>
        return 0;
      memset(pagetable, 0, PGSIZE);
    80000ffa:	6605                	lui	a2,0x1
    80000ffc:	4581                	li	a1,0
    80000ffe:	00000097          	auipc	ra,0x0
    80001002:	cce080e7          	jalr	-818(ra) # 80000ccc <memset>
      *pte = PA2PTE(pagetable) | PTE_V;
    80001006:	00c4d793          	srli	a5,s1,0xc
    8000100a:	07aa                	slli	a5,a5,0xa
    8000100c:	0017e793          	ori	a5,a5,1
    80001010:	00f93023          	sd	a5,0(s2)
  for(int level = 2; level > 0; level--) {
    80001014:	3a5d                	addiw	s4,s4,-9
    80001016:	036a0063          	beq	s4,s6,80001036 <walk+0x82>
    pte_t *pte = &pagetable[PX(level, va)];
    8000101a:	0149d933          	srl	s2,s3,s4
    8000101e:	1ff97913          	andi	s2,s2,511
    80001022:	090e                	slli	s2,s2,0x3
    80001024:	9926                	add	s2,s2,s1
    if(*pte & PTE_V) {
    80001026:	00093483          	ld	s1,0(s2)
    8000102a:	0014f793          	andi	a5,s1,1
    8000102e:	dfd5                	beqz	a5,80000fea <walk+0x36>
      pagetable = (pagetable_t)PTE2PA(*pte);
    80001030:	80a9                	srli	s1,s1,0xa
    80001032:	04b2                	slli	s1,s1,0xc
    80001034:	b7c5                	j	80001014 <walk+0x60>
    }
  }
  return &pagetable[PX(0, va)];
    80001036:	00c9d513          	srli	a0,s3,0xc
    8000103a:	1ff57513          	andi	a0,a0,511
    8000103e:	050e                	slli	a0,a0,0x3
    80001040:	9526                	add	a0,a0,s1
}
    80001042:	70e2                	ld	ra,56(sp)
    80001044:	7442                	ld	s0,48(sp)
    80001046:	74a2                	ld	s1,40(sp)
    80001048:	7902                	ld	s2,32(sp)
    8000104a:	69e2                	ld	s3,24(sp)
    8000104c:	6a42                	ld	s4,16(sp)
    8000104e:	6aa2                	ld	s5,8(sp)
    80001050:	6b02                	ld	s6,0(sp)
    80001052:	6121                	addi	sp,sp,64
    80001054:	8082                	ret
        return 0;
    80001056:	4501                	li	a0,0
    80001058:	b7ed                	j	80001042 <walk+0x8e>

000000008000105a <walkaddr>:
walkaddr(pagetable_t pagetable, uint64 va)
{
  pte_t *pte;
  uint64 pa;

  if(va >= MAXVA)
    8000105a:	57fd                	li	a5,-1
    8000105c:	83e9                	srli	a5,a5,0x1a
    8000105e:	00b7f463          	bgeu	a5,a1,80001066 <walkaddr+0xc>
    return 0;
    80001062:	4501                	li	a0,0
    return 0;
  if((*pte & PTE_U) == 0)
    return 0;
  pa = PTE2PA(*pte);
  return pa;
}
    80001064:	8082                	ret
{
    80001066:	1141                	addi	sp,sp,-16
    80001068:	e406                	sd	ra,8(sp)
    8000106a:	e022                	sd	s0,0(sp)
    8000106c:	0800                	addi	s0,sp,16
  pte = walk(pagetable, va, 0);
    8000106e:	4601                	li	a2,0
    80001070:	00000097          	auipc	ra,0x0
    80001074:	f44080e7          	jalr	-188(ra) # 80000fb4 <walk>
  if(pte == 0)
    80001078:	c105                	beqz	a0,80001098 <walkaddr+0x3e>
  if((*pte & PTE_V) == 0)
    8000107a:	611c                	ld	a5,0(a0)
  if((*pte & PTE_U) == 0)
    8000107c:	0117f693          	andi	a3,a5,17
    80001080:	4745                	li	a4,17
    return 0;
    80001082:	4501                	li	a0,0
  if((*pte & PTE_U) == 0)
    80001084:	00e68663          	beq	a3,a4,80001090 <walkaddr+0x36>
}
    80001088:	60a2                	ld	ra,8(sp)
    8000108a:	6402                	ld	s0,0(sp)
    8000108c:	0141                	addi	sp,sp,16
    8000108e:	8082                	ret
  pa = PTE2PA(*pte);
    80001090:	00a7d513          	srli	a0,a5,0xa
    80001094:	0532                	slli	a0,a0,0xc
  return pa;
    80001096:	bfcd                	j	80001088 <walkaddr+0x2e>
    return 0;
    80001098:	4501                	li	a0,0
    8000109a:	b7fd                	j	80001088 <walkaddr+0x2e>

000000008000109c <mappages>:
// physical addresses starting at pa. va and size might not
// be page-aligned. Returns 0 on success, -1 if walk() couldn't
// allocate a needed page-table page.
int
mappages(pagetable_t pagetable, uint64 va, uint64 size, uint64 pa, int perm)
{
    8000109c:	715d                	addi	sp,sp,-80
    8000109e:	e486                	sd	ra,72(sp)
    800010a0:	e0a2                	sd	s0,64(sp)
    800010a2:	fc26                	sd	s1,56(sp)
    800010a4:	f84a                	sd	s2,48(sp)
    800010a6:	f44e                	sd	s3,40(sp)
    800010a8:	f052                	sd	s4,32(sp)
    800010aa:	ec56                	sd	s5,24(sp)
    800010ac:	e85a                	sd	s6,16(sp)
    800010ae:	e45e                	sd	s7,8(sp)
    800010b0:	0880                	addi	s0,sp,80
    800010b2:	8aaa                	mv	s5,a0
    800010b4:	8b3a                	mv	s6,a4
  uint64 a, last;
  pte_t *pte;

  a = PGROUNDDOWN(va);
    800010b6:	777d                	lui	a4,0xfffff
    800010b8:	00e5f7b3          	and	a5,a1,a4
  last = PGROUNDDOWN(va + size - 1);
    800010bc:	167d                	addi	a2,a2,-1
    800010be:	00b609b3          	add	s3,a2,a1
    800010c2:	00e9f9b3          	and	s3,s3,a4
  a = PGROUNDDOWN(va);
    800010c6:	893e                	mv	s2,a5
    800010c8:	40f68a33          	sub	s4,a3,a5
    if(*pte & PTE_V)
      panic("remap");
    *pte = PA2PTE(pa) | perm | PTE_V;
    if(a == last)
      break;
    a += PGSIZE;
    800010cc:	6b85                	lui	s7,0x1
    800010ce:	012a04b3          	add	s1,s4,s2
    if((pte = walk(pagetable, a, 1)) == 0)
    800010d2:	4605                	li	a2,1
    800010d4:	85ca                	mv	a1,s2
    800010d6:	8556                	mv	a0,s5
    800010d8:	00000097          	auipc	ra,0x0
    800010dc:	edc080e7          	jalr	-292(ra) # 80000fb4 <walk>
    800010e0:	c51d                	beqz	a0,8000110e <mappages+0x72>
    if(*pte & PTE_V)
    800010e2:	611c                	ld	a5,0(a0)
    800010e4:	8b85                	andi	a5,a5,1
    800010e6:	ef81                	bnez	a5,800010fe <mappages+0x62>
    *pte = PA2PTE(pa) | perm | PTE_V;
    800010e8:	80b1                	srli	s1,s1,0xc
    800010ea:	04aa                	slli	s1,s1,0xa
    800010ec:	0164e4b3          	or	s1,s1,s6
    800010f0:	0014e493          	ori	s1,s1,1
    800010f4:	e104                	sd	s1,0(a0)
    if(a == last)
    800010f6:	03390863          	beq	s2,s3,80001126 <mappages+0x8a>
    a += PGSIZE;
    800010fa:	995e                	add	s2,s2,s7
    if((pte = walk(pagetable, a, 1)) == 0)
    800010fc:	bfc9                	j	800010ce <mappages+0x32>
      panic("remap");
    800010fe:	00007517          	auipc	a0,0x7
    80001102:	fda50513          	addi	a0,a0,-38 # 800080d8 <digits+0x98>
    80001106:	fffff097          	auipc	ra,0xfffff
    8000110a:	432080e7          	jalr	1074(ra) # 80000538 <panic>
      return -1;
    8000110e:	557d                	li	a0,-1
    pa += PGSIZE;
  }
  return 0;
}
    80001110:	60a6                	ld	ra,72(sp)
    80001112:	6406                	ld	s0,64(sp)
    80001114:	74e2                	ld	s1,56(sp)
    80001116:	7942                	ld	s2,48(sp)
    80001118:	79a2                	ld	s3,40(sp)
    8000111a:	7a02                	ld	s4,32(sp)
    8000111c:	6ae2                	ld	s5,24(sp)
    8000111e:	6b42                	ld	s6,16(sp)
    80001120:	6ba2                	ld	s7,8(sp)
    80001122:	6161                	addi	sp,sp,80
    80001124:	8082                	ret
  return 0;
    80001126:	4501                	li	a0,0
    80001128:	b7e5                	j	80001110 <mappages+0x74>

000000008000112a <kvmmap>:
{
    8000112a:	1141                	addi	sp,sp,-16
    8000112c:	e406                	sd	ra,8(sp)
    8000112e:	e022                	sd	s0,0(sp)
    80001130:	0800                	addi	s0,sp,16
    80001132:	87b6                	mv	a5,a3
  if(mappages(kpgtbl, va, sz, pa, perm) != 0)
    80001134:	86b2                	mv	a3,a2
    80001136:	863e                	mv	a2,a5
    80001138:	00000097          	auipc	ra,0x0
    8000113c:	f64080e7          	jalr	-156(ra) # 8000109c <mappages>
    80001140:	e509                	bnez	a0,8000114a <kvmmap+0x20>
}
    80001142:	60a2                	ld	ra,8(sp)
    80001144:	6402                	ld	s0,0(sp)
    80001146:	0141                	addi	sp,sp,16
    80001148:	8082                	ret
    panic("kvmmap");
    8000114a:	00007517          	auipc	a0,0x7
    8000114e:	f9650513          	addi	a0,a0,-106 # 800080e0 <digits+0xa0>
    80001152:	fffff097          	auipc	ra,0xfffff
    80001156:	3e6080e7          	jalr	998(ra) # 80000538 <panic>

000000008000115a <kvmmake>:
{
    8000115a:	1101                	addi	sp,sp,-32
    8000115c:	ec06                	sd	ra,24(sp)
    8000115e:	e822                	sd	s0,16(sp)
    80001160:	e426                	sd	s1,8(sp)
    80001162:	e04a                	sd	s2,0(sp)
    80001164:	1000                	addi	s0,sp,32
  kpgtbl = (pagetable_t) kalloc();
    80001166:	00000097          	auipc	ra,0x0
    8000116a:	97a080e7          	jalr	-1670(ra) # 80000ae0 <kalloc>
    8000116e:	84aa                	mv	s1,a0
  memset(kpgtbl, 0, PGSIZE);
    80001170:	6605                	lui	a2,0x1
    80001172:	4581                	li	a1,0
    80001174:	00000097          	auipc	ra,0x0
    80001178:	b58080e7          	jalr	-1192(ra) # 80000ccc <memset>
  kvmmap(kpgtbl, UART0, UART0, PGSIZE, PTE_R | PTE_W);
    8000117c:	4719                	li	a4,6
    8000117e:	6685                	lui	a3,0x1
    80001180:	10000637          	lui	a2,0x10000
    80001184:	100005b7          	lui	a1,0x10000
    80001188:	8526                	mv	a0,s1
    8000118a:	00000097          	auipc	ra,0x0
    8000118e:	fa0080e7          	jalr	-96(ra) # 8000112a <kvmmap>
  kvmmap(kpgtbl, VIRTIO0, VIRTIO0, PGSIZE, PTE_R | PTE_W);
    80001192:	4719                	li	a4,6
    80001194:	6685                	lui	a3,0x1
    80001196:	10001637          	lui	a2,0x10001
    8000119a:	100015b7          	lui	a1,0x10001
    8000119e:	8526                	mv	a0,s1
    800011a0:	00000097          	auipc	ra,0x0
    800011a4:	f8a080e7          	jalr	-118(ra) # 8000112a <kvmmap>
  kvmmap(kpgtbl, PLIC, PLIC, 0x400000, PTE_R | PTE_W);
    800011a8:	4719                	li	a4,6
    800011aa:	004006b7          	lui	a3,0x400
    800011ae:	0c000637          	lui	a2,0xc000
    800011b2:	0c0005b7          	lui	a1,0xc000
    800011b6:	8526                	mv	a0,s1
    800011b8:	00000097          	auipc	ra,0x0
    800011bc:	f72080e7          	jalr	-142(ra) # 8000112a <kvmmap>
  kvmmap(kpgtbl, KERNBASE, KERNBASE, (uint64)etext-KERNBASE, PTE_R | PTE_X);
    800011c0:	00007917          	auipc	s2,0x7
    800011c4:	e4090913          	addi	s2,s2,-448 # 80008000 <etext>
    800011c8:	4729                	li	a4,10
    800011ca:	80007697          	auipc	a3,0x80007
    800011ce:	e3668693          	addi	a3,a3,-458 # 8000 <_entry-0x7fff8000>
    800011d2:	4605                	li	a2,1
    800011d4:	067e                	slli	a2,a2,0x1f
    800011d6:	85b2                	mv	a1,a2
    800011d8:	8526                	mv	a0,s1
    800011da:	00000097          	auipc	ra,0x0
    800011de:	f50080e7          	jalr	-176(ra) # 8000112a <kvmmap>
  kvmmap(kpgtbl, (uint64)etext, (uint64)etext, PHYSTOP-(uint64)etext, PTE_R | PTE_W);
    800011e2:	4719                	li	a4,6
    800011e4:	46c5                	li	a3,17
    800011e6:	06ee                	slli	a3,a3,0x1b
    800011e8:	412686b3          	sub	a3,a3,s2
    800011ec:	864a                	mv	a2,s2
    800011ee:	85ca                	mv	a1,s2
    800011f0:	8526                	mv	a0,s1
    800011f2:	00000097          	auipc	ra,0x0
    800011f6:	f38080e7          	jalr	-200(ra) # 8000112a <kvmmap>
  kvmmap(kpgtbl, TRAMPOLINE, (uint64)trampoline, PGSIZE, PTE_R | PTE_X);
    800011fa:	4729                	li	a4,10
    800011fc:	6685                	lui	a3,0x1
    800011fe:	00006617          	auipc	a2,0x6
    80001202:	e0260613          	addi	a2,a2,-510 # 80007000 <_trampoline>
    80001206:	040005b7          	lui	a1,0x4000
    8000120a:	15fd                	addi	a1,a1,-1
    8000120c:	05b2                	slli	a1,a1,0xc
    8000120e:	8526                	mv	a0,s1
    80001210:	00000097          	auipc	ra,0x0
    80001214:	f1a080e7          	jalr	-230(ra) # 8000112a <kvmmap>
  proc_mapstacks(kpgtbl);
    80001218:	8526                	mv	a0,s1
    8000121a:	00000097          	auipc	ra,0x0
    8000121e:	6da080e7          	jalr	1754(ra) # 800018f4 <proc_mapstacks>
}
    80001222:	8526                	mv	a0,s1
    80001224:	60e2                	ld	ra,24(sp)
    80001226:	6442                	ld	s0,16(sp)
    80001228:	64a2                	ld	s1,8(sp)
    8000122a:	6902                	ld	s2,0(sp)
    8000122c:	6105                	addi	sp,sp,32
    8000122e:	8082                	ret

0000000080001230 <kvminit>:
{
    80001230:	1141                	addi	sp,sp,-16
    80001232:	e406                	sd	ra,8(sp)
    80001234:	e022                	sd	s0,0(sp)
    80001236:	0800                	addi	s0,sp,16
  kernel_pagetable = kvmmake();
    80001238:	00000097          	auipc	ra,0x0
    8000123c:	f22080e7          	jalr	-222(ra) # 8000115a <kvmmake>
    80001240:	00008797          	auipc	a5,0x8
    80001244:	dea7b023          	sd	a0,-544(a5) # 80009020 <kernel_pagetable>
}
    80001248:	60a2                	ld	ra,8(sp)
    8000124a:	6402                	ld	s0,0(sp)
    8000124c:	0141                	addi	sp,sp,16
    8000124e:	8082                	ret

0000000080001250 <uvmunmap>:
// Remove npages of mappings starting from va. va must be
// page-aligned. The mappings must exist.
// Optionally free the physical memory.
void
uvmunmap(pagetable_t pagetable, uint64 va, uint64 npages, int do_free)
{
    80001250:	715d                	addi	sp,sp,-80
    80001252:	e486                	sd	ra,72(sp)
    80001254:	e0a2                	sd	s0,64(sp)
    80001256:	fc26                	sd	s1,56(sp)
    80001258:	f84a                	sd	s2,48(sp)
    8000125a:	f44e                	sd	s3,40(sp)
    8000125c:	f052                	sd	s4,32(sp)
    8000125e:	ec56                	sd	s5,24(sp)
    80001260:	e85a                	sd	s6,16(sp)
    80001262:	e45e                	sd	s7,8(sp)
    80001264:	0880                	addi	s0,sp,80
  uint64 a;
  pte_t *pte;

  if((va % PGSIZE) != 0)
    80001266:	03459793          	slli	a5,a1,0x34
    8000126a:	e795                	bnez	a5,80001296 <uvmunmap+0x46>
    8000126c:	8a2a                	mv	s4,a0
    8000126e:	892e                	mv	s2,a1
    80001270:	8ab6                	mv	s5,a3
    panic("uvmunmap: not aligned");

  for(a = va; a < va + npages*PGSIZE; a += PGSIZE){
    80001272:	0632                	slli	a2,a2,0xc
    80001274:	00b609b3          	add	s3,a2,a1
    if((pte = walk(pagetable, a, 0)) == 0)
      panic("uvmunmap: walk");
    if((*pte & PTE_V) == 0)
      panic("uvmunmap: not mapped");
    if(PTE_FLAGS(*pte) == PTE_V)
    80001278:	4b85                	li	s7,1
  for(a = va; a < va + npages*PGSIZE; a += PGSIZE){
    8000127a:	6b05                	lui	s6,0x1
    8000127c:	0735e263          	bltu	a1,s3,800012e0 <uvmunmap+0x90>
      uint64 pa = PTE2PA(*pte);
      kfree((void*)pa);
    }
    *pte = 0;
  }
}
    80001280:	60a6                	ld	ra,72(sp)
    80001282:	6406                	ld	s0,64(sp)
    80001284:	74e2                	ld	s1,56(sp)
    80001286:	7942                	ld	s2,48(sp)
    80001288:	79a2                	ld	s3,40(sp)
    8000128a:	7a02                	ld	s4,32(sp)
    8000128c:	6ae2                	ld	s5,24(sp)
    8000128e:	6b42                	ld	s6,16(sp)
    80001290:	6ba2                	ld	s7,8(sp)
    80001292:	6161                	addi	sp,sp,80
    80001294:	8082                	ret
    panic("uvmunmap: not aligned");
    80001296:	00007517          	auipc	a0,0x7
    8000129a:	e5250513          	addi	a0,a0,-430 # 800080e8 <digits+0xa8>
    8000129e:	fffff097          	auipc	ra,0xfffff
    800012a2:	29a080e7          	jalr	666(ra) # 80000538 <panic>
      panic("uvmunmap: walk");
    800012a6:	00007517          	auipc	a0,0x7
    800012aa:	e5a50513          	addi	a0,a0,-422 # 80008100 <digits+0xc0>
    800012ae:	fffff097          	auipc	ra,0xfffff
    800012b2:	28a080e7          	jalr	650(ra) # 80000538 <panic>
      panic("uvmunmap: not mapped");
    800012b6:	00007517          	auipc	a0,0x7
    800012ba:	e5a50513          	addi	a0,a0,-422 # 80008110 <digits+0xd0>
    800012be:	fffff097          	auipc	ra,0xfffff
    800012c2:	27a080e7          	jalr	634(ra) # 80000538 <panic>
      panic("uvmunmap: not a leaf");
    800012c6:	00007517          	auipc	a0,0x7
    800012ca:	e6250513          	addi	a0,a0,-414 # 80008128 <digits+0xe8>
    800012ce:	fffff097          	auipc	ra,0xfffff
    800012d2:	26a080e7          	jalr	618(ra) # 80000538 <panic>
    *pte = 0;
    800012d6:	0004b023          	sd	zero,0(s1)
  for(a = va; a < va + npages*PGSIZE; a += PGSIZE){
    800012da:	995a                	add	s2,s2,s6
    800012dc:	fb3972e3          	bgeu	s2,s3,80001280 <uvmunmap+0x30>
    if((pte = walk(pagetable, a, 0)) == 0)
    800012e0:	4601                	li	a2,0
    800012e2:	85ca                	mv	a1,s2
    800012e4:	8552                	mv	a0,s4
    800012e6:	00000097          	auipc	ra,0x0
    800012ea:	cce080e7          	jalr	-818(ra) # 80000fb4 <walk>
    800012ee:	84aa                	mv	s1,a0
    800012f0:	d95d                	beqz	a0,800012a6 <uvmunmap+0x56>
    if((*pte & PTE_V) == 0)
    800012f2:	6108                	ld	a0,0(a0)
    800012f4:	00157793          	andi	a5,a0,1
    800012f8:	dfdd                	beqz	a5,800012b6 <uvmunmap+0x66>
    if(PTE_FLAGS(*pte) == PTE_V)
    800012fa:	3ff57793          	andi	a5,a0,1023
    800012fe:	fd7784e3          	beq	a5,s7,800012c6 <uvmunmap+0x76>
    if(do_free){
    80001302:	fc0a8ae3          	beqz	s5,800012d6 <uvmunmap+0x86>
      uint64 pa = PTE2PA(*pte);
    80001306:	8129                	srli	a0,a0,0xa
      kfree((void*)pa);
    80001308:	0532                	slli	a0,a0,0xc
    8000130a:	fffff097          	auipc	ra,0xfffff
    8000130e:	6da080e7          	jalr	1754(ra) # 800009e4 <kfree>
    80001312:	b7d1                	j	800012d6 <uvmunmap+0x86>

0000000080001314 <uvmcreate>:

// create an empty user page table.
// returns 0 if out of memory.
pagetable_t
uvmcreate()
{
    80001314:	1101                	addi	sp,sp,-32
    80001316:	ec06                	sd	ra,24(sp)
    80001318:	e822                	sd	s0,16(sp)
    8000131a:	e426                	sd	s1,8(sp)
    8000131c:	1000                	addi	s0,sp,32
  pagetable_t pagetable;
  pagetable = (pagetable_t) kalloc();
    8000131e:	fffff097          	auipc	ra,0xfffff
    80001322:	7c2080e7          	jalr	1986(ra) # 80000ae0 <kalloc>
    80001326:	84aa                	mv	s1,a0
  if(pagetable == 0)
    80001328:	c519                	beqz	a0,80001336 <uvmcreate+0x22>
    return 0;
  memset(pagetable, 0, PGSIZE);
    8000132a:	6605                	lui	a2,0x1
    8000132c:	4581                	li	a1,0
    8000132e:	00000097          	auipc	ra,0x0
    80001332:	99e080e7          	jalr	-1634(ra) # 80000ccc <memset>
  return pagetable;
}
    80001336:	8526                	mv	a0,s1
    80001338:	60e2                	ld	ra,24(sp)
    8000133a:	6442                	ld	s0,16(sp)
    8000133c:	64a2                	ld	s1,8(sp)
    8000133e:	6105                	addi	sp,sp,32
    80001340:	8082                	ret

0000000080001342 <uvminit>:
// Load the user initcode into address 0 of pagetable,
// for the very first process.
// sz must be less than a page.
void
uvminit(pagetable_t pagetable, uchar *src, uint sz)
{
    80001342:	7179                	addi	sp,sp,-48
    80001344:	f406                	sd	ra,40(sp)
    80001346:	f022                	sd	s0,32(sp)
    80001348:	ec26                	sd	s1,24(sp)
    8000134a:	e84a                	sd	s2,16(sp)
    8000134c:	e44e                	sd	s3,8(sp)
    8000134e:	e052                	sd	s4,0(sp)
    80001350:	1800                	addi	s0,sp,48
  char *mem;

  if(sz >= PGSIZE)
    80001352:	6785                	lui	a5,0x1
    80001354:	04f67863          	bgeu	a2,a5,800013a4 <uvminit+0x62>
    80001358:	8a2a                	mv	s4,a0
    8000135a:	89ae                	mv	s3,a1
    8000135c:	84b2                	mv	s1,a2
    panic("inituvm: more than a page");
  mem = kalloc();
    8000135e:	fffff097          	auipc	ra,0xfffff
    80001362:	782080e7          	jalr	1922(ra) # 80000ae0 <kalloc>
    80001366:	892a                	mv	s2,a0
  memset(mem, 0, PGSIZE);
    80001368:	6605                	lui	a2,0x1
    8000136a:	4581                	li	a1,0
    8000136c:	00000097          	auipc	ra,0x0
    80001370:	960080e7          	jalr	-1696(ra) # 80000ccc <memset>
  mappages(pagetable, 0, PGSIZE, (uint64)mem, PTE_W|PTE_R|PTE_X|PTE_U);
    80001374:	4779                	li	a4,30
    80001376:	86ca                	mv	a3,s2
    80001378:	6605                	lui	a2,0x1
    8000137a:	4581                	li	a1,0
    8000137c:	8552                	mv	a0,s4
    8000137e:	00000097          	auipc	ra,0x0
    80001382:	d1e080e7          	jalr	-738(ra) # 8000109c <mappages>
  memmove(mem, src, sz);
    80001386:	8626                	mv	a2,s1
    80001388:	85ce                	mv	a1,s3
    8000138a:	854a                	mv	a0,s2
    8000138c:	00000097          	auipc	ra,0x0
    80001390:	99c080e7          	jalr	-1636(ra) # 80000d28 <memmove>
}
    80001394:	70a2                	ld	ra,40(sp)
    80001396:	7402                	ld	s0,32(sp)
    80001398:	64e2                	ld	s1,24(sp)
    8000139a:	6942                	ld	s2,16(sp)
    8000139c:	69a2                	ld	s3,8(sp)
    8000139e:	6a02                	ld	s4,0(sp)
    800013a0:	6145                	addi	sp,sp,48
    800013a2:	8082                	ret
    panic("inituvm: more than a page");
    800013a4:	00007517          	auipc	a0,0x7
    800013a8:	d9c50513          	addi	a0,a0,-612 # 80008140 <digits+0x100>
    800013ac:	fffff097          	auipc	ra,0xfffff
    800013b0:	18c080e7          	jalr	396(ra) # 80000538 <panic>

00000000800013b4 <uvmdealloc>:
// newsz.  oldsz and newsz need not be page-aligned, nor does newsz
// need to be less than oldsz.  oldsz can be larger than the actual
// process size.  Returns the new process size.
uint64
uvmdealloc(pagetable_t pagetable, uint64 oldsz, uint64 newsz)
{
    800013b4:	1101                	addi	sp,sp,-32
    800013b6:	ec06                	sd	ra,24(sp)
    800013b8:	e822                	sd	s0,16(sp)
    800013ba:	e426                	sd	s1,8(sp)
    800013bc:	1000                	addi	s0,sp,32
  if(newsz >= oldsz)
    return oldsz;
    800013be:	84ae                	mv	s1,a1
  if(newsz >= oldsz)
    800013c0:	00b67d63          	bgeu	a2,a1,800013da <uvmdealloc+0x26>
    800013c4:	84b2                	mv	s1,a2

  if(PGROUNDUP(newsz) < PGROUNDUP(oldsz)){
    800013c6:	6785                	lui	a5,0x1
    800013c8:	17fd                	addi	a5,a5,-1
    800013ca:	00f60733          	add	a4,a2,a5
    800013ce:	767d                	lui	a2,0xfffff
    800013d0:	8f71                	and	a4,a4,a2
    800013d2:	97ae                	add	a5,a5,a1
    800013d4:	8ff1                	and	a5,a5,a2
    800013d6:	00f76863          	bltu	a4,a5,800013e6 <uvmdealloc+0x32>
    int npages = (PGROUNDUP(oldsz) - PGROUNDUP(newsz)) / PGSIZE;
    uvmunmap(pagetable, PGROUNDUP(newsz), npages, 1);
  }

  return newsz;
}
    800013da:	8526                	mv	a0,s1
    800013dc:	60e2                	ld	ra,24(sp)
    800013de:	6442                	ld	s0,16(sp)
    800013e0:	64a2                	ld	s1,8(sp)
    800013e2:	6105                	addi	sp,sp,32
    800013e4:	8082                	ret
    int npages = (PGROUNDUP(oldsz) - PGROUNDUP(newsz)) / PGSIZE;
    800013e6:	8f99                	sub	a5,a5,a4
    800013e8:	83b1                	srli	a5,a5,0xc
    uvmunmap(pagetable, PGROUNDUP(newsz), npages, 1);
    800013ea:	4685                	li	a3,1
    800013ec:	0007861b          	sext.w	a2,a5
    800013f0:	85ba                	mv	a1,a4
    800013f2:	00000097          	auipc	ra,0x0
    800013f6:	e5e080e7          	jalr	-418(ra) # 80001250 <uvmunmap>
    800013fa:	b7c5                	j	800013da <uvmdealloc+0x26>

00000000800013fc <uvmalloc>:
  if(newsz < oldsz)
    800013fc:	0ab66163          	bltu	a2,a1,8000149e <uvmalloc+0xa2>
{
    80001400:	7139                	addi	sp,sp,-64
    80001402:	fc06                	sd	ra,56(sp)
    80001404:	f822                	sd	s0,48(sp)
    80001406:	f426                	sd	s1,40(sp)
    80001408:	f04a                	sd	s2,32(sp)
    8000140a:	ec4e                	sd	s3,24(sp)
    8000140c:	e852                	sd	s4,16(sp)
    8000140e:	e456                	sd	s5,8(sp)
    80001410:	0080                	addi	s0,sp,64
    80001412:	8aaa                	mv	s5,a0
    80001414:	8a32                	mv	s4,a2
  oldsz = PGROUNDUP(oldsz);
    80001416:	6985                	lui	s3,0x1
    80001418:	19fd                	addi	s3,s3,-1
    8000141a:	95ce                	add	a1,a1,s3
    8000141c:	79fd                	lui	s3,0xfffff
    8000141e:	0135f9b3          	and	s3,a1,s3
  for(a = oldsz; a < newsz; a += PGSIZE){
    80001422:	08c9f063          	bgeu	s3,a2,800014a2 <uvmalloc+0xa6>
    80001426:	894e                	mv	s2,s3
    mem = kalloc();
    80001428:	fffff097          	auipc	ra,0xfffff
    8000142c:	6b8080e7          	jalr	1720(ra) # 80000ae0 <kalloc>
    80001430:	84aa                	mv	s1,a0
    if(mem == 0){
    80001432:	c51d                	beqz	a0,80001460 <uvmalloc+0x64>
    memset(mem, 0, PGSIZE);
    80001434:	6605                	lui	a2,0x1
    80001436:	4581                	li	a1,0
    80001438:	00000097          	auipc	ra,0x0
    8000143c:	894080e7          	jalr	-1900(ra) # 80000ccc <memset>
    if(mappages(pagetable, a, PGSIZE, (uint64)mem, PTE_W|PTE_X|PTE_R|PTE_U) != 0){
    80001440:	4779                	li	a4,30
    80001442:	86a6                	mv	a3,s1
    80001444:	6605                	lui	a2,0x1
    80001446:	85ca                	mv	a1,s2
    80001448:	8556                	mv	a0,s5
    8000144a:	00000097          	auipc	ra,0x0
    8000144e:	c52080e7          	jalr	-942(ra) # 8000109c <mappages>
    80001452:	e905                	bnez	a0,80001482 <uvmalloc+0x86>
  for(a = oldsz; a < newsz; a += PGSIZE){
    80001454:	6785                	lui	a5,0x1
    80001456:	993e                	add	s2,s2,a5
    80001458:	fd4968e3          	bltu	s2,s4,80001428 <uvmalloc+0x2c>
  return newsz;
    8000145c:	8552                	mv	a0,s4
    8000145e:	a809                	j	80001470 <uvmalloc+0x74>
      uvmdealloc(pagetable, a, oldsz);
    80001460:	864e                	mv	a2,s3
    80001462:	85ca                	mv	a1,s2
    80001464:	8556                	mv	a0,s5
    80001466:	00000097          	auipc	ra,0x0
    8000146a:	f4e080e7          	jalr	-178(ra) # 800013b4 <uvmdealloc>
      return 0;
    8000146e:	4501                	li	a0,0
}
    80001470:	70e2                	ld	ra,56(sp)
    80001472:	7442                	ld	s0,48(sp)
    80001474:	74a2                	ld	s1,40(sp)
    80001476:	7902                	ld	s2,32(sp)
    80001478:	69e2                	ld	s3,24(sp)
    8000147a:	6a42                	ld	s4,16(sp)
    8000147c:	6aa2                	ld	s5,8(sp)
    8000147e:	6121                	addi	sp,sp,64
    80001480:	8082                	ret
      kfree(mem);
    80001482:	8526                	mv	a0,s1
    80001484:	fffff097          	auipc	ra,0xfffff
    80001488:	560080e7          	jalr	1376(ra) # 800009e4 <kfree>
      uvmdealloc(pagetable, a, oldsz);
    8000148c:	864e                	mv	a2,s3
    8000148e:	85ca                	mv	a1,s2
    80001490:	8556                	mv	a0,s5
    80001492:	00000097          	auipc	ra,0x0
    80001496:	f22080e7          	jalr	-222(ra) # 800013b4 <uvmdealloc>
      return 0;
    8000149a:	4501                	li	a0,0
    8000149c:	bfd1                	j	80001470 <uvmalloc+0x74>
    return oldsz;
    8000149e:	852e                	mv	a0,a1
}
    800014a0:	8082                	ret
  return newsz;
    800014a2:	8532                	mv	a0,a2
    800014a4:	b7f1                	j	80001470 <uvmalloc+0x74>

00000000800014a6 <freewalk>:

// Recursively free page-table pages.
// All leaf mappings must already have been removed.
void
freewalk(pagetable_t pagetable)
{
    800014a6:	7179                	addi	sp,sp,-48
    800014a8:	f406                	sd	ra,40(sp)
    800014aa:	f022                	sd	s0,32(sp)
    800014ac:	ec26                	sd	s1,24(sp)
    800014ae:	e84a                	sd	s2,16(sp)
    800014b0:	e44e                	sd	s3,8(sp)
    800014b2:	e052                	sd	s4,0(sp)
    800014b4:	1800                	addi	s0,sp,48
    800014b6:	8a2a                	mv	s4,a0
  // there are 2^9 = 512 PTEs in a page table.
  for(int i = 0; i < 512; i++){
    800014b8:	84aa                	mv	s1,a0
    800014ba:	6905                	lui	s2,0x1
    800014bc:	992a                	add	s2,s2,a0
    pte_t pte = pagetable[i];
    if((pte & PTE_V) && (pte & (PTE_R|PTE_W|PTE_X)) == 0){
    800014be:	4985                	li	s3,1
    800014c0:	a821                	j	800014d8 <freewalk+0x32>
      // this PTE points to a lower-level page table.
      uint64 child = PTE2PA(pte);
    800014c2:	8129                	srli	a0,a0,0xa
      freewalk((pagetable_t)child);
    800014c4:	0532                	slli	a0,a0,0xc
    800014c6:	00000097          	auipc	ra,0x0
    800014ca:	fe0080e7          	jalr	-32(ra) # 800014a6 <freewalk>
      pagetable[i] = 0;
    800014ce:	0004b023          	sd	zero,0(s1)
  for(int i = 0; i < 512; i++){
    800014d2:	04a1                	addi	s1,s1,8
    800014d4:	03248163          	beq	s1,s2,800014f6 <freewalk+0x50>
    pte_t pte = pagetable[i];
    800014d8:	6088                	ld	a0,0(s1)
    if((pte & PTE_V) && (pte & (PTE_R|PTE_W|PTE_X)) == 0){
    800014da:	00f57793          	andi	a5,a0,15
    800014de:	ff3782e3          	beq	a5,s3,800014c2 <freewalk+0x1c>
    } else if(pte & PTE_V){
    800014e2:	8905                	andi	a0,a0,1
    800014e4:	d57d                	beqz	a0,800014d2 <freewalk+0x2c>
      panic("freewalk: leaf");
    800014e6:	00007517          	auipc	a0,0x7
    800014ea:	c7a50513          	addi	a0,a0,-902 # 80008160 <digits+0x120>
    800014ee:	fffff097          	auipc	ra,0xfffff
    800014f2:	04a080e7          	jalr	74(ra) # 80000538 <panic>
    }
  }
  kfree((void*)pagetable);
    800014f6:	8552                	mv	a0,s4
    800014f8:	fffff097          	auipc	ra,0xfffff
    800014fc:	4ec080e7          	jalr	1260(ra) # 800009e4 <kfree>
}
    80001500:	70a2                	ld	ra,40(sp)
    80001502:	7402                	ld	s0,32(sp)
    80001504:	64e2                	ld	s1,24(sp)
    80001506:	6942                	ld	s2,16(sp)
    80001508:	69a2                	ld	s3,8(sp)
    8000150a:	6a02                	ld	s4,0(sp)
    8000150c:	6145                	addi	sp,sp,48
    8000150e:	8082                	ret

0000000080001510 <uvmfree>:

// Free user memory pages,
// then free page-table pages.
void
uvmfree(pagetable_t pagetable, uint64 sz)
{
    80001510:	1101                	addi	sp,sp,-32
    80001512:	ec06                	sd	ra,24(sp)
    80001514:	e822                	sd	s0,16(sp)
    80001516:	e426                	sd	s1,8(sp)
    80001518:	1000                	addi	s0,sp,32
    8000151a:	84aa                	mv	s1,a0
  if(sz > 0)
    8000151c:	e999                	bnez	a1,80001532 <uvmfree+0x22>
    uvmunmap(pagetable, 0, PGROUNDUP(sz)/PGSIZE, 1);
  freewalk(pagetable);
    8000151e:	8526                	mv	a0,s1
    80001520:	00000097          	auipc	ra,0x0
    80001524:	f86080e7          	jalr	-122(ra) # 800014a6 <freewalk>
}
    80001528:	60e2                	ld	ra,24(sp)
    8000152a:	6442                	ld	s0,16(sp)
    8000152c:	64a2                	ld	s1,8(sp)
    8000152e:	6105                	addi	sp,sp,32
    80001530:	8082                	ret
    uvmunmap(pagetable, 0, PGROUNDUP(sz)/PGSIZE, 1);
    80001532:	6605                	lui	a2,0x1
    80001534:	167d                	addi	a2,a2,-1
    80001536:	962e                	add	a2,a2,a1
    80001538:	4685                	li	a3,1
    8000153a:	8231                	srli	a2,a2,0xc
    8000153c:	4581                	li	a1,0
    8000153e:	00000097          	auipc	ra,0x0
    80001542:	d12080e7          	jalr	-750(ra) # 80001250 <uvmunmap>
    80001546:	bfe1                	j	8000151e <uvmfree+0xe>

0000000080001548 <uvmcopy>:
  pte_t *pte;
  uint64 pa, i;
  uint flags;
  char *mem;

  for(i = 0; i < sz; i += PGSIZE){
    80001548:	c679                	beqz	a2,80001616 <uvmcopy+0xce>
{
    8000154a:	715d                	addi	sp,sp,-80
    8000154c:	e486                	sd	ra,72(sp)
    8000154e:	e0a2                	sd	s0,64(sp)
    80001550:	fc26                	sd	s1,56(sp)
    80001552:	f84a                	sd	s2,48(sp)
    80001554:	f44e                	sd	s3,40(sp)
    80001556:	f052                	sd	s4,32(sp)
    80001558:	ec56                	sd	s5,24(sp)
    8000155a:	e85a                	sd	s6,16(sp)
    8000155c:	e45e                	sd	s7,8(sp)
    8000155e:	0880                	addi	s0,sp,80
    80001560:	8b2a                	mv	s6,a0
    80001562:	8aae                	mv	s5,a1
    80001564:	8a32                	mv	s4,a2
  for(i = 0; i < sz; i += PGSIZE){
    80001566:	4981                	li	s3,0
    if((pte = walk(old, i, 0)) == 0)
    80001568:	4601                	li	a2,0
    8000156a:	85ce                	mv	a1,s3
    8000156c:	855a                	mv	a0,s6
    8000156e:	00000097          	auipc	ra,0x0
    80001572:	a46080e7          	jalr	-1466(ra) # 80000fb4 <walk>
    80001576:	c531                	beqz	a0,800015c2 <uvmcopy+0x7a>
      panic("uvmcopy: pte should exist");
    if((*pte & PTE_V) == 0)
    80001578:	6118                	ld	a4,0(a0)
    8000157a:	00177793          	andi	a5,a4,1
    8000157e:	cbb1                	beqz	a5,800015d2 <uvmcopy+0x8a>
      panic("uvmcopy: page not present");
    pa = PTE2PA(*pte);
    80001580:	00a75593          	srli	a1,a4,0xa
    80001584:	00c59b93          	slli	s7,a1,0xc
    flags = PTE_FLAGS(*pte);
    80001588:	3ff77493          	andi	s1,a4,1023
    if((mem = kalloc()) == 0)
    8000158c:	fffff097          	auipc	ra,0xfffff
    80001590:	554080e7          	jalr	1364(ra) # 80000ae0 <kalloc>
    80001594:	892a                	mv	s2,a0
    80001596:	c939                	beqz	a0,800015ec <uvmcopy+0xa4>
      goto err;
    memmove(mem, (char*)pa, PGSIZE);
    80001598:	6605                	lui	a2,0x1
    8000159a:	85de                	mv	a1,s7
    8000159c:	fffff097          	auipc	ra,0xfffff
    800015a0:	78c080e7          	jalr	1932(ra) # 80000d28 <memmove>
    if(mappages(new, i, PGSIZE, (uint64)mem, flags) != 0){
    800015a4:	8726                	mv	a4,s1
    800015a6:	86ca                	mv	a3,s2
    800015a8:	6605                	lui	a2,0x1
    800015aa:	85ce                	mv	a1,s3
    800015ac:	8556                	mv	a0,s5
    800015ae:	00000097          	auipc	ra,0x0
    800015b2:	aee080e7          	jalr	-1298(ra) # 8000109c <mappages>
    800015b6:	e515                	bnez	a0,800015e2 <uvmcopy+0x9a>
  for(i = 0; i < sz; i += PGSIZE){
    800015b8:	6785                	lui	a5,0x1
    800015ba:	99be                	add	s3,s3,a5
    800015bc:	fb49e6e3          	bltu	s3,s4,80001568 <uvmcopy+0x20>
    800015c0:	a081                	j	80001600 <uvmcopy+0xb8>
      panic("uvmcopy: pte should exist");
    800015c2:	00007517          	auipc	a0,0x7
    800015c6:	bae50513          	addi	a0,a0,-1106 # 80008170 <digits+0x130>
    800015ca:	fffff097          	auipc	ra,0xfffff
    800015ce:	f6e080e7          	jalr	-146(ra) # 80000538 <panic>
      panic("uvmcopy: page not present");
    800015d2:	00007517          	auipc	a0,0x7
    800015d6:	bbe50513          	addi	a0,a0,-1090 # 80008190 <digits+0x150>
    800015da:	fffff097          	auipc	ra,0xfffff
    800015de:	f5e080e7          	jalr	-162(ra) # 80000538 <panic>
      kfree(mem);
    800015e2:	854a                	mv	a0,s2
    800015e4:	fffff097          	auipc	ra,0xfffff
    800015e8:	400080e7          	jalr	1024(ra) # 800009e4 <kfree>
    }
  }
  return 0;

 err:
  uvmunmap(new, 0, i / PGSIZE, 1);
    800015ec:	4685                	li	a3,1
    800015ee:	00c9d613          	srli	a2,s3,0xc
    800015f2:	4581                	li	a1,0
    800015f4:	8556                	mv	a0,s5
    800015f6:	00000097          	auipc	ra,0x0
    800015fa:	c5a080e7          	jalr	-934(ra) # 80001250 <uvmunmap>
  return -1;
    800015fe:	557d                	li	a0,-1
}
    80001600:	60a6                	ld	ra,72(sp)
    80001602:	6406                	ld	s0,64(sp)
    80001604:	74e2                	ld	s1,56(sp)
    80001606:	7942                	ld	s2,48(sp)
    80001608:	79a2                	ld	s3,40(sp)
    8000160a:	7a02                	ld	s4,32(sp)
    8000160c:	6ae2                	ld	s5,24(sp)
    8000160e:	6b42                	ld	s6,16(sp)
    80001610:	6ba2                	ld	s7,8(sp)
    80001612:	6161                	addi	sp,sp,80
    80001614:	8082                	ret
  return 0;
    80001616:	4501                	li	a0,0
}
    80001618:	8082                	ret

000000008000161a <uvmclear>:

// mark a PTE invalid for user access.
// used by exec for the user stack guard page.
void
uvmclear(pagetable_t pagetable, uint64 va)
{
    8000161a:	1141                	addi	sp,sp,-16
    8000161c:	e406                	sd	ra,8(sp)
    8000161e:	e022                	sd	s0,0(sp)
    80001620:	0800                	addi	s0,sp,16
  pte_t *pte;
  
  pte = walk(pagetable, va, 0);
    80001622:	4601                	li	a2,0
    80001624:	00000097          	auipc	ra,0x0
    80001628:	990080e7          	jalr	-1648(ra) # 80000fb4 <walk>
  if(pte == 0)
    8000162c:	c901                	beqz	a0,8000163c <uvmclear+0x22>
    panic("uvmclear");
  *pte &= ~PTE_U;
    8000162e:	611c                	ld	a5,0(a0)
    80001630:	9bbd                	andi	a5,a5,-17
    80001632:	e11c                	sd	a5,0(a0)
}
    80001634:	60a2                	ld	ra,8(sp)
    80001636:	6402                	ld	s0,0(sp)
    80001638:	0141                	addi	sp,sp,16
    8000163a:	8082                	ret
    panic("uvmclear");
    8000163c:	00007517          	auipc	a0,0x7
    80001640:	b7450513          	addi	a0,a0,-1164 # 800081b0 <digits+0x170>
    80001644:	fffff097          	auipc	ra,0xfffff
    80001648:	ef4080e7          	jalr	-268(ra) # 80000538 <panic>

000000008000164c <copyout>:
int
copyout(pagetable_t pagetable, uint64 dstva, char *src, uint64 len)
{
  uint64 n, va0, pa0;

  while(len > 0){
    8000164c:	c6bd                	beqz	a3,800016ba <copyout+0x6e>
{
    8000164e:	715d                	addi	sp,sp,-80
    80001650:	e486                	sd	ra,72(sp)
    80001652:	e0a2                	sd	s0,64(sp)
    80001654:	fc26                	sd	s1,56(sp)
    80001656:	f84a                	sd	s2,48(sp)
    80001658:	f44e                	sd	s3,40(sp)
    8000165a:	f052                	sd	s4,32(sp)
    8000165c:	ec56                	sd	s5,24(sp)
    8000165e:	e85a                	sd	s6,16(sp)
    80001660:	e45e                	sd	s7,8(sp)
    80001662:	e062                	sd	s8,0(sp)
    80001664:	0880                	addi	s0,sp,80
    80001666:	8b2a                	mv	s6,a0
    80001668:	8c2e                	mv	s8,a1
    8000166a:	8a32                	mv	s4,a2
    8000166c:	89b6                	mv	s3,a3
    va0 = PGROUNDDOWN(dstva);
    8000166e:	7bfd                	lui	s7,0xfffff
    pa0 = walkaddr(pagetable, va0);
    if(pa0 == 0)
      return -1;
    n = PGSIZE - (dstva - va0);
    80001670:	6a85                	lui	s5,0x1
    80001672:	a015                	j	80001696 <copyout+0x4a>
    if(n > len)
      n = len;
    memmove((void *)(pa0 + (dstva - va0)), src, n);
    80001674:	9562                	add	a0,a0,s8
    80001676:	0004861b          	sext.w	a2,s1
    8000167a:	85d2                	mv	a1,s4
    8000167c:	41250533          	sub	a0,a0,s2
    80001680:	fffff097          	auipc	ra,0xfffff
    80001684:	6a8080e7          	jalr	1704(ra) # 80000d28 <memmove>

    len -= n;
    80001688:	409989b3          	sub	s3,s3,s1
    src += n;
    8000168c:	9a26                	add	s4,s4,s1
    dstva = va0 + PGSIZE;
    8000168e:	01590c33          	add	s8,s2,s5
  while(len > 0){
    80001692:	02098263          	beqz	s3,800016b6 <copyout+0x6a>
    va0 = PGROUNDDOWN(dstva);
    80001696:	017c7933          	and	s2,s8,s7
    pa0 = walkaddr(pagetable, va0);
    8000169a:	85ca                	mv	a1,s2
    8000169c:	855a                	mv	a0,s6
    8000169e:	00000097          	auipc	ra,0x0
    800016a2:	9bc080e7          	jalr	-1604(ra) # 8000105a <walkaddr>
    if(pa0 == 0)
    800016a6:	cd01                	beqz	a0,800016be <copyout+0x72>
    n = PGSIZE - (dstva - va0);
    800016a8:	418904b3          	sub	s1,s2,s8
    800016ac:	94d6                	add	s1,s1,s5
    if(n > len)
    800016ae:	fc99f3e3          	bgeu	s3,s1,80001674 <copyout+0x28>
    800016b2:	84ce                	mv	s1,s3
    800016b4:	b7c1                	j	80001674 <copyout+0x28>
  }
  return 0;
    800016b6:	4501                	li	a0,0
    800016b8:	a021                	j	800016c0 <copyout+0x74>
    800016ba:	4501                	li	a0,0
}
    800016bc:	8082                	ret
      return -1;
    800016be:	557d                	li	a0,-1
}
    800016c0:	60a6                	ld	ra,72(sp)
    800016c2:	6406                	ld	s0,64(sp)
    800016c4:	74e2                	ld	s1,56(sp)
    800016c6:	7942                	ld	s2,48(sp)
    800016c8:	79a2                	ld	s3,40(sp)
    800016ca:	7a02                	ld	s4,32(sp)
    800016cc:	6ae2                	ld	s5,24(sp)
    800016ce:	6b42                	ld	s6,16(sp)
    800016d0:	6ba2                	ld	s7,8(sp)
    800016d2:	6c02                	ld	s8,0(sp)
    800016d4:	6161                	addi	sp,sp,80
    800016d6:	8082                	ret

00000000800016d8 <copyin>:
int
copyin(pagetable_t pagetable, char *dst, uint64 srcva, uint64 len)
{
  uint64 n, va0, pa0;

  while(len > 0){
    800016d8:	caa5                	beqz	a3,80001748 <copyin+0x70>
{
    800016da:	715d                	addi	sp,sp,-80
    800016dc:	e486                	sd	ra,72(sp)
    800016de:	e0a2                	sd	s0,64(sp)
    800016e0:	fc26                	sd	s1,56(sp)
    800016e2:	f84a                	sd	s2,48(sp)
    800016e4:	f44e                	sd	s3,40(sp)
    800016e6:	f052                	sd	s4,32(sp)
    800016e8:	ec56                	sd	s5,24(sp)
    800016ea:	e85a                	sd	s6,16(sp)
    800016ec:	e45e                	sd	s7,8(sp)
    800016ee:	e062                	sd	s8,0(sp)
    800016f0:	0880                	addi	s0,sp,80
    800016f2:	8b2a                	mv	s6,a0
    800016f4:	8a2e                	mv	s4,a1
    800016f6:	8c32                	mv	s8,a2
    800016f8:	89b6                	mv	s3,a3
    va0 = PGROUNDDOWN(srcva);
    800016fa:	7bfd                	lui	s7,0xfffff
    pa0 = walkaddr(pagetable, va0);
    if(pa0 == 0)
      return -1;
    n = PGSIZE - (srcva - va0);
    800016fc:	6a85                	lui	s5,0x1
    800016fe:	a01d                	j	80001724 <copyin+0x4c>
    if(n > len)
      n = len;
    memmove(dst, (void *)(pa0 + (srcva - va0)), n);
    80001700:	018505b3          	add	a1,a0,s8
    80001704:	0004861b          	sext.w	a2,s1
    80001708:	412585b3          	sub	a1,a1,s2
    8000170c:	8552                	mv	a0,s4
    8000170e:	fffff097          	auipc	ra,0xfffff
    80001712:	61a080e7          	jalr	1562(ra) # 80000d28 <memmove>

    len -= n;
    80001716:	409989b3          	sub	s3,s3,s1
    dst += n;
    8000171a:	9a26                	add	s4,s4,s1
    srcva = va0 + PGSIZE;
    8000171c:	01590c33          	add	s8,s2,s5
  while(len > 0){
    80001720:	02098263          	beqz	s3,80001744 <copyin+0x6c>
    va0 = PGROUNDDOWN(srcva);
    80001724:	017c7933          	and	s2,s8,s7
    pa0 = walkaddr(pagetable, va0);
    80001728:	85ca                	mv	a1,s2
    8000172a:	855a                	mv	a0,s6
    8000172c:	00000097          	auipc	ra,0x0
    80001730:	92e080e7          	jalr	-1746(ra) # 8000105a <walkaddr>
    if(pa0 == 0)
    80001734:	cd01                	beqz	a0,8000174c <copyin+0x74>
    n = PGSIZE - (srcva - va0);
    80001736:	418904b3          	sub	s1,s2,s8
    8000173a:	94d6                	add	s1,s1,s5
    if(n > len)
    8000173c:	fc99f2e3          	bgeu	s3,s1,80001700 <copyin+0x28>
    80001740:	84ce                	mv	s1,s3
    80001742:	bf7d                	j	80001700 <copyin+0x28>
  }
  return 0;
    80001744:	4501                	li	a0,0
    80001746:	a021                	j	8000174e <copyin+0x76>
    80001748:	4501                	li	a0,0
}
    8000174a:	8082                	ret
      return -1;
    8000174c:	557d                	li	a0,-1
}
    8000174e:	60a6                	ld	ra,72(sp)
    80001750:	6406                	ld	s0,64(sp)
    80001752:	74e2                	ld	s1,56(sp)
    80001754:	7942                	ld	s2,48(sp)
    80001756:	79a2                	ld	s3,40(sp)
    80001758:	7a02                	ld	s4,32(sp)
    8000175a:	6ae2                	ld	s5,24(sp)
    8000175c:	6b42                	ld	s6,16(sp)
    8000175e:	6ba2                	ld	s7,8(sp)
    80001760:	6c02                	ld	s8,0(sp)
    80001762:	6161                	addi	sp,sp,80
    80001764:	8082                	ret

0000000080001766 <my_memmove>:

void*
my_memmove(void *dst, const void *src, uint n)
{
    80001766:	1141                	addi	sp,sp,-16
    80001768:	e422                	sd	s0,8(sp)
    8000176a:	0800                	addi	s0,sp,16
  u32 *d; */

  s = src;
  d = dst;

  if(s < d && s + (n*8) > d){
    8000176c:	06a5e163          	bltu	a1,a0,800017ce <my_memmove+0x68>
    d2 = (char*)d;
    while(n-- > 0)
      *--d2 = *--s2;
  } 
  else{
    while(n >= 8){
    80001770:	479d                	li	a5,7
    80001772:	04c7fb63          	bgeu	a5,a2,800017c8 <my_memmove+0x62>
    80001776:	ff86071b          	addiw	a4,a2,-8
    8000177a:	0037571b          	srliw	a4,a4,0x3
    8000177e:	2705                	addiw	a4,a4,1
    80001780:	02071793          	slli	a5,a4,0x20
    80001784:	01d7d713          	srli	a4,a5,0x1d
    80001788:	00e587b3          	add	a5,a1,a4
    8000178c:	86aa                	mv	a3,a0
      *d++ = *s++;
    8000178e:	05a1                	addi	a1,a1,8
    80001790:	06a1                	addi	a3,a3,8
    80001792:	ff85b803          	ld	a6,-8(a1) # 3fffff8 <_entry-0x7c000008>
    80001796:	ff06bc23          	sd	a6,-8(a3) # ff8 <_entry-0x7ffff008>
    while(n >= 8){
    8000179a:	fef59ae3          	bne	a1,a5,8000178e <my_memmove+0x28>
      *d++ = *s++;
    8000179e:	972a                	add	a4,a4,a0
      n -= 8;
    800017a0:	8a1d                	andi	a2,a2,7
    }
    const char *s2;
    char *d2;
    s2 = (const char*)s;
    d2 = (char*)d;
    while(n-- > 0){
    800017a2:	fff6069b          	addiw	a3,a2,-1
    800017a6:	ce11                	beqz	a2,800017c2 <my_memmove+0x5c>
    800017a8:	02069613          	slli	a2,a3,0x20
    800017ac:	9201                	srli	a2,a2,0x20
    800017ae:	0605                	addi	a2,a2,1
    800017b0:	963e                	add	a2,a2,a5
      *d2++ = *s2++;
    800017b2:	0785                	addi	a5,a5,1
    800017b4:	0705                	addi	a4,a4,1
    800017b6:	fff7c683          	lbu	a3,-1(a5) # fff <_entry-0x7ffff001>
    800017ba:	fed70fa3          	sb	a3,-1(a4) # ffffffffffffefff <end+0xffffffff7ffd89a7>
    while(n-- > 0){
    800017be:	fec79ae3          	bne	a5,a2,800017b2 <my_memmove+0x4c>
    }
  }

  return dst;
}
    800017c2:	6422                	ld	s0,8(sp)
    800017c4:	0141                	addi	sp,sp,16
    800017c6:	8082                	ret
    while(n >= 8){
    800017c8:	872a                	mv	a4,a0
    800017ca:	87ae                	mv	a5,a1
    800017cc:	bfd9                	j	800017a2 <my_memmove+0x3c>
  if(s < d && s + (n*8) > d){
    800017ce:	0036171b          	slliw	a4,a2,0x3
    800017d2:	1702                	slli	a4,a4,0x20
    800017d4:	9301                	srli	a4,a4,0x20
    800017d6:	070e                	slli	a4,a4,0x3
    800017d8:	00e586b3          	add	a3,a1,a4
    800017dc:	f8d57ae3          	bgeu	a0,a3,80001770 <my_memmove+0xa>
    d += (n*8);
    800017e0:	972a                	add	a4,a4,a0
    while(n >= 8){
    800017e2:	479d                	li	a5,7
    800017e4:	04c7fc63          	bgeu	a5,a2,8000183c <my_memmove+0xd6>
    800017e8:	ff86079b          	addiw	a5,a2,-8
    800017ec:	0037d79b          	srliw	a5,a5,0x3
    800017f0:	2785                	addiw	a5,a5,1
    800017f2:	02079593          	slli	a1,a5,0x20
    800017f6:	01d5d793          	srli	a5,a1,0x1d
    800017fa:	40f008b3          	neg	a7,a5
    800017fe:	40f687b3          	sub	a5,a3,a5
    d += (n*8);
    80001802:	85ba                	mv	a1,a4
      *--d = *--s;
    80001804:	16e1                	addi	a3,a3,-8
    80001806:	15e1                	addi	a1,a1,-8
    80001808:	0006b803          	ld	a6,0(a3)
    8000180c:	0105b023          	sd	a6,0(a1)
    while(n >= 8){
    80001810:	fef69ae3          	bne	a3,a5,80001804 <my_memmove+0x9e>
      *--d = *--s;
    80001814:	9746                	add	a4,a4,a7
      n -= 8;
    80001816:	8a1d                	andi	a2,a2,7
    while(n-- > 0)
    80001818:	fff6069b          	addiw	a3,a2,-1
    8000181c:	d25d                	beqz	a2,800017c2 <my_memmove+0x5c>
    8000181e:	02069613          	slli	a2,a3,0x20
    80001822:	9201                	srli	a2,a2,0x20
    80001824:	fff64613          	not	a2,a2
    80001828:	963e                	add	a2,a2,a5
      *--d2 = *--s2;
    8000182a:	17fd                	addi	a5,a5,-1
    8000182c:	177d                	addi	a4,a4,-1
    8000182e:	0007c683          	lbu	a3,0(a5)
    80001832:	00d70023          	sb	a3,0(a4)
    while(n-- > 0)
    80001836:	fef61ae3          	bne	a2,a5,8000182a <my_memmove+0xc4>
    8000183a:	b761                	j	800017c2 <my_memmove+0x5c>
    s += (n*8);
    8000183c:	87b6                	mv	a5,a3
    8000183e:	bfe9                	j	80001818 <my_memmove+0xb2>

0000000080001840 <copyinstr>:
copyinstr(pagetable_t pagetable, char *dst, uint64 srcva, uint64 max)
{
  uint64 n, va0, pa0;
  int got_null = 0;

  while(got_null == 0 && max > 0){
    80001840:	c6c5                	beqz	a3,800018e8 <copyinstr+0xa8>
{
    80001842:	715d                	addi	sp,sp,-80
    80001844:	e486                	sd	ra,72(sp)
    80001846:	e0a2                	sd	s0,64(sp)
    80001848:	fc26                	sd	s1,56(sp)
    8000184a:	f84a                	sd	s2,48(sp)
    8000184c:	f44e                	sd	s3,40(sp)
    8000184e:	f052                	sd	s4,32(sp)
    80001850:	ec56                	sd	s5,24(sp)
    80001852:	e85a                	sd	s6,16(sp)
    80001854:	e45e                	sd	s7,8(sp)
    80001856:	0880                	addi	s0,sp,80
    80001858:	8a2a                	mv	s4,a0
    8000185a:	8b2e                	mv	s6,a1
    8000185c:	8bb2                	mv	s7,a2
    8000185e:	84b6                	mv	s1,a3
    va0 = PGROUNDDOWN(srcva);
    80001860:	7afd                	lui	s5,0xfffff
    pa0 = walkaddr(pagetable, va0);
    if(pa0 == 0)
      return -1;
    n = PGSIZE - (srcva - va0);
    80001862:	6985                	lui	s3,0x1
    80001864:	a035                	j	80001890 <copyinstr+0x50>
      n = max;

    char *p = (char *) (pa0 + (srcva - va0));
    while(n > 0){
      if(*p == '\0'){
        *dst = '\0';
    80001866:	00078023          	sb	zero,0(a5)
    8000186a:	4785                	li	a5,1
      dst++;
    }

    srcva = va0 + PGSIZE;
  }
  if(got_null){
    8000186c:	0017b793          	seqz	a5,a5
    80001870:	40f00533          	neg	a0,a5
    return 0;
  } else {
    return -1;
  }
}
    80001874:	60a6                	ld	ra,72(sp)
    80001876:	6406                	ld	s0,64(sp)
    80001878:	74e2                	ld	s1,56(sp)
    8000187a:	7942                	ld	s2,48(sp)
    8000187c:	79a2                	ld	s3,40(sp)
    8000187e:	7a02                	ld	s4,32(sp)
    80001880:	6ae2                	ld	s5,24(sp)
    80001882:	6b42                	ld	s6,16(sp)
    80001884:	6ba2                	ld	s7,8(sp)
    80001886:	6161                	addi	sp,sp,80
    80001888:	8082                	ret
    srcva = va0 + PGSIZE;
    8000188a:	01390bb3          	add	s7,s2,s3
  while(got_null == 0 && max > 0){
    8000188e:	c8a9                	beqz	s1,800018e0 <copyinstr+0xa0>
    va0 = PGROUNDDOWN(srcva);
    80001890:	015bf933          	and	s2,s7,s5
    pa0 = walkaddr(pagetable, va0);
    80001894:	85ca                	mv	a1,s2
    80001896:	8552                	mv	a0,s4
    80001898:	fffff097          	auipc	ra,0xfffff
    8000189c:	7c2080e7          	jalr	1986(ra) # 8000105a <walkaddr>
    if(pa0 == 0)
    800018a0:	c131                	beqz	a0,800018e4 <copyinstr+0xa4>
    n = PGSIZE - (srcva - va0);
    800018a2:	41790833          	sub	a6,s2,s7
    800018a6:	984e                	add	a6,a6,s3
    if(n > max)
    800018a8:	0104f363          	bgeu	s1,a6,800018ae <copyinstr+0x6e>
    800018ac:	8826                	mv	a6,s1
    char *p = (char *) (pa0 + (srcva - va0));
    800018ae:	955e                	add	a0,a0,s7
    800018b0:	41250533          	sub	a0,a0,s2
    while(n > 0){
    800018b4:	fc080be3          	beqz	a6,8000188a <copyinstr+0x4a>
    800018b8:	985a                	add	a6,a6,s6
    800018ba:	87da                	mv	a5,s6
      if(*p == '\0'){
    800018bc:	41650633          	sub	a2,a0,s6
    800018c0:	14fd                	addi	s1,s1,-1
    800018c2:	9b26                	add	s6,s6,s1
    800018c4:	00f60733          	add	a4,a2,a5
    800018c8:	00074703          	lbu	a4,0(a4)
    800018cc:	df49                	beqz	a4,80001866 <copyinstr+0x26>
        *dst = *p;
    800018ce:	00e78023          	sb	a4,0(a5)
      --max;
    800018d2:	40fb04b3          	sub	s1,s6,a5
      dst++;
    800018d6:	0785                	addi	a5,a5,1
    while(n > 0){
    800018d8:	ff0796e3          	bne	a5,a6,800018c4 <copyinstr+0x84>
      dst++;
    800018dc:	8b42                	mv	s6,a6
    800018de:	b775                	j	8000188a <copyinstr+0x4a>
    800018e0:	4781                	li	a5,0
    800018e2:	b769                	j	8000186c <copyinstr+0x2c>
      return -1;
    800018e4:	557d                	li	a0,-1
    800018e6:	b779                	j	80001874 <copyinstr+0x34>
  int got_null = 0;
    800018e8:	4781                	li	a5,0
  if(got_null){
    800018ea:	0017b793          	seqz	a5,a5
    800018ee:	40f00533          	neg	a0,a5
}
    800018f2:	8082                	ret

00000000800018f4 <proc_mapstacks>:

// Allocate a page for each process's kernel stack.
// Map it high in memory, followed by an invalid
// guard page.
void
proc_mapstacks(pagetable_t kpgtbl) {
    800018f4:	7139                	addi	sp,sp,-64
    800018f6:	fc06                	sd	ra,56(sp)
    800018f8:	f822                	sd	s0,48(sp)
    800018fa:	f426                	sd	s1,40(sp)
    800018fc:	f04a                	sd	s2,32(sp)
    800018fe:	ec4e                	sd	s3,24(sp)
    80001900:	e852                	sd	s4,16(sp)
    80001902:	e456                	sd	s5,8(sp)
    80001904:	e05a                	sd	s6,0(sp)
    80001906:	0080                	addi	s0,sp,64
    80001908:	89aa                	mv	s3,a0
  struct proc *p;
  
  for(p = proc; p < &proc[NPROC]; p++) {
    8000190a:	00010497          	auipc	s1,0x10
    8000190e:	dc648493          	addi	s1,s1,-570 # 800116d0 <proc>
    char *pa = kalloc();
    if(pa == 0)
      panic("kalloc");
    uint64 va = KSTACK((int) (p - proc));
    80001912:	8b26                	mv	s6,s1
    80001914:	00006a97          	auipc	s5,0x6
    80001918:	6eca8a93          	addi	s5,s5,1772 # 80008000 <etext>
    8000191c:	04000937          	lui	s2,0x4000
    80001920:	197d                	addi	s2,s2,-1
    80001922:	0932                	slli	s2,s2,0xc
  for(p = proc; p < &proc[NPROC]; p++) {
    80001924:	00015a17          	auipc	s4,0x15
    80001928:	7aca0a13          	addi	s4,s4,1964 # 800170d0 <tickslock>
    char *pa = kalloc();
    8000192c:	fffff097          	auipc	ra,0xfffff
    80001930:	1b4080e7          	jalr	436(ra) # 80000ae0 <kalloc>
    80001934:	862a                	mv	a2,a0
    if(pa == 0)
    80001936:	c131                	beqz	a0,8000197a <proc_mapstacks+0x86>
    uint64 va = KSTACK((int) (p - proc));
    80001938:	416485b3          	sub	a1,s1,s6
    8000193c:	858d                	srai	a1,a1,0x3
    8000193e:	000ab783          	ld	a5,0(s5)
    80001942:	02f585b3          	mul	a1,a1,a5
    80001946:	2585                	addiw	a1,a1,1
    80001948:	00d5959b          	slliw	a1,a1,0xd
    kvmmap(kpgtbl, va, (uint64)pa, PGSIZE, PTE_R | PTE_W);
    8000194c:	4719                	li	a4,6
    8000194e:	6685                	lui	a3,0x1
    80001950:	40b905b3          	sub	a1,s2,a1
    80001954:	854e                	mv	a0,s3
    80001956:	fffff097          	auipc	ra,0xfffff
    8000195a:	7d4080e7          	jalr	2004(ra) # 8000112a <kvmmap>
  for(p = proc; p < &proc[NPROC]; p++) {
    8000195e:	16848493          	addi	s1,s1,360
    80001962:	fd4495e3          	bne	s1,s4,8000192c <proc_mapstacks+0x38>
  }
}
    80001966:	70e2                	ld	ra,56(sp)
    80001968:	7442                	ld	s0,48(sp)
    8000196a:	74a2                	ld	s1,40(sp)
    8000196c:	7902                	ld	s2,32(sp)
    8000196e:	69e2                	ld	s3,24(sp)
    80001970:	6a42                	ld	s4,16(sp)
    80001972:	6aa2                	ld	s5,8(sp)
    80001974:	6b02                	ld	s6,0(sp)
    80001976:	6121                	addi	sp,sp,64
    80001978:	8082                	ret
      panic("kalloc");
    8000197a:	00007517          	auipc	a0,0x7
    8000197e:	84650513          	addi	a0,a0,-1978 # 800081c0 <digits+0x180>
    80001982:	fffff097          	auipc	ra,0xfffff
    80001986:	bb6080e7          	jalr	-1098(ra) # 80000538 <panic>

000000008000198a <procinit>:

// initialize the proc table at boot time.
void
procinit(void)
{
    8000198a:	7139                	addi	sp,sp,-64
    8000198c:	fc06                	sd	ra,56(sp)
    8000198e:	f822                	sd	s0,48(sp)
    80001990:	f426                	sd	s1,40(sp)
    80001992:	f04a                	sd	s2,32(sp)
    80001994:	ec4e                	sd	s3,24(sp)
    80001996:	e852                	sd	s4,16(sp)
    80001998:	e456                	sd	s5,8(sp)
    8000199a:	e05a                	sd	s6,0(sp)
    8000199c:	0080                	addi	s0,sp,64
  struct proc *p;
  
  initlock(&pid_lock, "nextpid");
    8000199e:	00007597          	auipc	a1,0x7
    800019a2:	82a58593          	addi	a1,a1,-2006 # 800081c8 <digits+0x188>
    800019a6:	00010517          	auipc	a0,0x10
    800019aa:	8fa50513          	addi	a0,a0,-1798 # 800112a0 <pid_lock>
    800019ae:	fffff097          	auipc	ra,0xfffff
    800019b2:	192080e7          	jalr	402(ra) # 80000b40 <initlock>
  initlock(&wait_lock, "wait_lock");
    800019b6:	00007597          	auipc	a1,0x7
    800019ba:	81a58593          	addi	a1,a1,-2022 # 800081d0 <digits+0x190>
    800019be:	00010517          	auipc	a0,0x10
    800019c2:	8fa50513          	addi	a0,a0,-1798 # 800112b8 <wait_lock>
    800019c6:	fffff097          	auipc	ra,0xfffff
    800019ca:	17a080e7          	jalr	378(ra) # 80000b40 <initlock>
  for(p = proc; p < &proc[NPROC]; p++) {
    800019ce:	00010497          	auipc	s1,0x10
    800019d2:	d0248493          	addi	s1,s1,-766 # 800116d0 <proc>
      initlock(&p->lock, "proc");
    800019d6:	00007b17          	auipc	s6,0x7
    800019da:	80ab0b13          	addi	s6,s6,-2038 # 800081e0 <digits+0x1a0>
      p->kstack = KSTACK((int) (p - proc));
    800019de:	8aa6                	mv	s5,s1
    800019e0:	00006a17          	auipc	s4,0x6
    800019e4:	620a0a13          	addi	s4,s4,1568 # 80008000 <etext>
    800019e8:	04000937          	lui	s2,0x4000
    800019ec:	197d                	addi	s2,s2,-1
    800019ee:	0932                	slli	s2,s2,0xc
  for(p = proc; p < &proc[NPROC]; p++) {
    800019f0:	00015997          	auipc	s3,0x15
    800019f4:	6e098993          	addi	s3,s3,1760 # 800170d0 <tickslock>
      initlock(&p->lock, "proc");
    800019f8:	85da                	mv	a1,s6
    800019fa:	8526                	mv	a0,s1
    800019fc:	fffff097          	auipc	ra,0xfffff
    80001a00:	144080e7          	jalr	324(ra) # 80000b40 <initlock>
      p->kstack = KSTACK((int) (p - proc));
    80001a04:	415487b3          	sub	a5,s1,s5
    80001a08:	878d                	srai	a5,a5,0x3
    80001a0a:	000a3703          	ld	a4,0(s4)
    80001a0e:	02e787b3          	mul	a5,a5,a4
    80001a12:	2785                	addiw	a5,a5,1
    80001a14:	00d7979b          	slliw	a5,a5,0xd
    80001a18:	40f907b3          	sub	a5,s2,a5
    80001a1c:	e0bc                	sd	a5,64(s1)
  for(p = proc; p < &proc[NPROC]; p++) {
    80001a1e:	16848493          	addi	s1,s1,360
    80001a22:	fd349be3          	bne	s1,s3,800019f8 <procinit+0x6e>
  }
}
    80001a26:	70e2                	ld	ra,56(sp)
    80001a28:	7442                	ld	s0,48(sp)
    80001a2a:	74a2                	ld	s1,40(sp)
    80001a2c:	7902                	ld	s2,32(sp)
    80001a2e:	69e2                	ld	s3,24(sp)
    80001a30:	6a42                	ld	s4,16(sp)
    80001a32:	6aa2                	ld	s5,8(sp)
    80001a34:	6b02                	ld	s6,0(sp)
    80001a36:	6121                	addi	sp,sp,64
    80001a38:	8082                	ret

0000000080001a3a <cpuid>:
// Must be called with interrupts disabled,
// to prevent race with process being moved
// to a different CPU.
int
cpuid()
{
    80001a3a:	1141                	addi	sp,sp,-16
    80001a3c:	e422                	sd	s0,8(sp)
    80001a3e:	0800                	addi	s0,sp,16
  asm volatile("mv %0, tp" : "=r" (x) );
    80001a40:	8512                	mv	a0,tp
  int id = r_tp();
  return id;
}
    80001a42:	2501                	sext.w	a0,a0
    80001a44:	6422                	ld	s0,8(sp)
    80001a46:	0141                	addi	sp,sp,16
    80001a48:	8082                	ret

0000000080001a4a <mycpu>:

// Return this CPU's cpu struct.
// Interrupts must be disabled.
struct cpu*
mycpu(void) {
    80001a4a:	1141                	addi	sp,sp,-16
    80001a4c:	e422                	sd	s0,8(sp)
    80001a4e:	0800                	addi	s0,sp,16
    80001a50:	8792                	mv	a5,tp
  int id = cpuid();
  struct cpu *c = &cpus[id];
    80001a52:	2781                	sext.w	a5,a5
    80001a54:	079e                	slli	a5,a5,0x7
  return c;
}
    80001a56:	00010517          	auipc	a0,0x10
    80001a5a:	87a50513          	addi	a0,a0,-1926 # 800112d0 <cpus>
    80001a5e:	953e                	add	a0,a0,a5
    80001a60:	6422                	ld	s0,8(sp)
    80001a62:	0141                	addi	sp,sp,16
    80001a64:	8082                	ret

0000000080001a66 <myproc>:

// Return the current struct proc *, or zero if none.
struct proc*
myproc(void) {
    80001a66:	1101                	addi	sp,sp,-32
    80001a68:	ec06                	sd	ra,24(sp)
    80001a6a:	e822                	sd	s0,16(sp)
    80001a6c:	e426                	sd	s1,8(sp)
    80001a6e:	1000                	addi	s0,sp,32
  push_off();
    80001a70:	fffff097          	auipc	ra,0xfffff
    80001a74:	114080e7          	jalr	276(ra) # 80000b84 <push_off>
    80001a78:	8792                	mv	a5,tp
  struct cpu *c = mycpu();
  struct proc *p = c->proc;
    80001a7a:	2781                	sext.w	a5,a5
    80001a7c:	079e                	slli	a5,a5,0x7
    80001a7e:	00010717          	auipc	a4,0x10
    80001a82:	82270713          	addi	a4,a4,-2014 # 800112a0 <pid_lock>
    80001a86:	97ba                	add	a5,a5,a4
    80001a88:	7b84                	ld	s1,48(a5)
  pop_off();
    80001a8a:	fffff097          	auipc	ra,0xfffff
    80001a8e:	19a080e7          	jalr	410(ra) # 80000c24 <pop_off>
  return p;
}
    80001a92:	8526                	mv	a0,s1
    80001a94:	60e2                	ld	ra,24(sp)
    80001a96:	6442                	ld	s0,16(sp)
    80001a98:	64a2                	ld	s1,8(sp)
    80001a9a:	6105                	addi	sp,sp,32
    80001a9c:	8082                	ret

0000000080001a9e <forkret>:

// A fork child's very first scheduling by scheduler()
// will swtch to forkret.
void
forkret(void)
{
    80001a9e:	1141                	addi	sp,sp,-16
    80001aa0:	e406                	sd	ra,8(sp)
    80001aa2:	e022                	sd	s0,0(sp)
    80001aa4:	0800                	addi	s0,sp,16
  static int first = 1;

  // Still holding p->lock from scheduler.
  release(&myproc()->lock);
    80001aa6:	00000097          	auipc	ra,0x0
    80001aaa:	fc0080e7          	jalr	-64(ra) # 80001a66 <myproc>
    80001aae:	fffff097          	auipc	ra,0xfffff
    80001ab2:	1d6080e7          	jalr	470(ra) # 80000c84 <release>

  if (first) {
    80001ab6:	00007797          	auipc	a5,0x7
    80001aba:	e6a7a783          	lw	a5,-406(a5) # 80008920 <first.1>
    80001abe:	eb89                	bnez	a5,80001ad0 <forkret+0x32>
    // be run from main().
    first = 0;
    fsinit(ROOTDEV);
  }

  usertrapret();
    80001ac0:	00001097          	auipc	ra,0x1
    80001ac4:	c10080e7          	jalr	-1008(ra) # 800026d0 <usertrapret>
}
    80001ac8:	60a2                	ld	ra,8(sp)
    80001aca:	6402                	ld	s0,0(sp)
    80001acc:	0141                	addi	sp,sp,16
    80001ace:	8082                	ret
    first = 0;
    80001ad0:	00007797          	auipc	a5,0x7
    80001ad4:	e407a823          	sw	zero,-432(a5) # 80008920 <first.1>
    fsinit(ROOTDEV);
    80001ad8:	4505                	li	a0,1
    80001ada:	00002097          	auipc	ra,0x2
    80001ade:	938080e7          	jalr	-1736(ra) # 80003412 <fsinit>
    80001ae2:	bff9                	j	80001ac0 <forkret+0x22>

0000000080001ae4 <allocpid>:
allocpid() {
    80001ae4:	1101                	addi	sp,sp,-32
    80001ae6:	ec06                	sd	ra,24(sp)
    80001ae8:	e822                	sd	s0,16(sp)
    80001aea:	e426                	sd	s1,8(sp)
    80001aec:	e04a                	sd	s2,0(sp)
    80001aee:	1000                	addi	s0,sp,32
  acquire(&pid_lock);
    80001af0:	0000f917          	auipc	s2,0xf
    80001af4:	7b090913          	addi	s2,s2,1968 # 800112a0 <pid_lock>
    80001af8:	854a                	mv	a0,s2
    80001afa:	fffff097          	auipc	ra,0xfffff
    80001afe:	0d6080e7          	jalr	214(ra) # 80000bd0 <acquire>
  pid = nextpid;
    80001b02:	00007797          	auipc	a5,0x7
    80001b06:	e2278793          	addi	a5,a5,-478 # 80008924 <nextpid>
    80001b0a:	4384                	lw	s1,0(a5)
  nextpid = nextpid + 1;
    80001b0c:	0014871b          	addiw	a4,s1,1
    80001b10:	c398                	sw	a4,0(a5)
  release(&pid_lock);
    80001b12:	854a                	mv	a0,s2
    80001b14:	fffff097          	auipc	ra,0xfffff
    80001b18:	170080e7          	jalr	368(ra) # 80000c84 <release>
}
    80001b1c:	8526                	mv	a0,s1
    80001b1e:	60e2                	ld	ra,24(sp)
    80001b20:	6442                	ld	s0,16(sp)
    80001b22:	64a2                	ld	s1,8(sp)
    80001b24:	6902                	ld	s2,0(sp)
    80001b26:	6105                	addi	sp,sp,32
    80001b28:	8082                	ret

0000000080001b2a <proc_pagetable>:
{
    80001b2a:	1101                	addi	sp,sp,-32
    80001b2c:	ec06                	sd	ra,24(sp)
    80001b2e:	e822                	sd	s0,16(sp)
    80001b30:	e426                	sd	s1,8(sp)
    80001b32:	e04a                	sd	s2,0(sp)
    80001b34:	1000                	addi	s0,sp,32
    80001b36:	892a                	mv	s2,a0
  pagetable = uvmcreate();
    80001b38:	fffff097          	auipc	ra,0xfffff
    80001b3c:	7dc080e7          	jalr	2012(ra) # 80001314 <uvmcreate>
    80001b40:	84aa                	mv	s1,a0
  if(pagetable == 0)
    80001b42:	c121                	beqz	a0,80001b82 <proc_pagetable+0x58>
  if(mappages(pagetable, TRAMPOLINE, PGSIZE,
    80001b44:	4729                	li	a4,10
    80001b46:	00005697          	auipc	a3,0x5
    80001b4a:	4ba68693          	addi	a3,a3,1210 # 80007000 <_trampoline>
    80001b4e:	6605                	lui	a2,0x1
    80001b50:	040005b7          	lui	a1,0x4000
    80001b54:	15fd                	addi	a1,a1,-1
    80001b56:	05b2                	slli	a1,a1,0xc
    80001b58:	fffff097          	auipc	ra,0xfffff
    80001b5c:	544080e7          	jalr	1348(ra) # 8000109c <mappages>
    80001b60:	02054863          	bltz	a0,80001b90 <proc_pagetable+0x66>
  if(mappages(pagetable, TRAPFRAME, PGSIZE,
    80001b64:	4719                	li	a4,6
    80001b66:	05893683          	ld	a3,88(s2)
    80001b6a:	6605                	lui	a2,0x1
    80001b6c:	020005b7          	lui	a1,0x2000
    80001b70:	15fd                	addi	a1,a1,-1
    80001b72:	05b6                	slli	a1,a1,0xd
    80001b74:	8526                	mv	a0,s1
    80001b76:	fffff097          	auipc	ra,0xfffff
    80001b7a:	526080e7          	jalr	1318(ra) # 8000109c <mappages>
    80001b7e:	02054163          	bltz	a0,80001ba0 <proc_pagetable+0x76>
}
    80001b82:	8526                	mv	a0,s1
    80001b84:	60e2                	ld	ra,24(sp)
    80001b86:	6442                	ld	s0,16(sp)
    80001b88:	64a2                	ld	s1,8(sp)
    80001b8a:	6902                	ld	s2,0(sp)
    80001b8c:	6105                	addi	sp,sp,32
    80001b8e:	8082                	ret
    uvmfree(pagetable, 0);
    80001b90:	4581                	li	a1,0
    80001b92:	8526                	mv	a0,s1
    80001b94:	00000097          	auipc	ra,0x0
    80001b98:	97c080e7          	jalr	-1668(ra) # 80001510 <uvmfree>
    return 0;
    80001b9c:	4481                	li	s1,0
    80001b9e:	b7d5                	j	80001b82 <proc_pagetable+0x58>
    uvmunmap(pagetable, TRAMPOLINE, 1, 0);
    80001ba0:	4681                	li	a3,0
    80001ba2:	4605                	li	a2,1
    80001ba4:	040005b7          	lui	a1,0x4000
    80001ba8:	15fd                	addi	a1,a1,-1
    80001baa:	05b2                	slli	a1,a1,0xc
    80001bac:	8526                	mv	a0,s1
    80001bae:	fffff097          	auipc	ra,0xfffff
    80001bb2:	6a2080e7          	jalr	1698(ra) # 80001250 <uvmunmap>
    uvmfree(pagetable, 0);
    80001bb6:	4581                	li	a1,0
    80001bb8:	8526                	mv	a0,s1
    80001bba:	00000097          	auipc	ra,0x0
    80001bbe:	956080e7          	jalr	-1706(ra) # 80001510 <uvmfree>
    return 0;
    80001bc2:	4481                	li	s1,0
    80001bc4:	bf7d                	j	80001b82 <proc_pagetable+0x58>

0000000080001bc6 <proc_freepagetable>:
{
    80001bc6:	1101                	addi	sp,sp,-32
    80001bc8:	ec06                	sd	ra,24(sp)
    80001bca:	e822                	sd	s0,16(sp)
    80001bcc:	e426                	sd	s1,8(sp)
    80001bce:	e04a                	sd	s2,0(sp)
    80001bd0:	1000                	addi	s0,sp,32
    80001bd2:	84aa                	mv	s1,a0
    80001bd4:	892e                	mv	s2,a1
  uvmunmap(pagetable, TRAMPOLINE, 1, 0);
    80001bd6:	4681                	li	a3,0
    80001bd8:	4605                	li	a2,1
    80001bda:	040005b7          	lui	a1,0x4000
    80001bde:	15fd                	addi	a1,a1,-1
    80001be0:	05b2                	slli	a1,a1,0xc
    80001be2:	fffff097          	auipc	ra,0xfffff
    80001be6:	66e080e7          	jalr	1646(ra) # 80001250 <uvmunmap>
  uvmunmap(pagetable, TRAPFRAME, 1, 0);
    80001bea:	4681                	li	a3,0
    80001bec:	4605                	li	a2,1
    80001bee:	020005b7          	lui	a1,0x2000
    80001bf2:	15fd                	addi	a1,a1,-1
    80001bf4:	05b6                	slli	a1,a1,0xd
    80001bf6:	8526                	mv	a0,s1
    80001bf8:	fffff097          	auipc	ra,0xfffff
    80001bfc:	658080e7          	jalr	1624(ra) # 80001250 <uvmunmap>
  uvmfree(pagetable, sz);
    80001c00:	85ca                	mv	a1,s2
    80001c02:	8526                	mv	a0,s1
    80001c04:	00000097          	auipc	ra,0x0
    80001c08:	90c080e7          	jalr	-1780(ra) # 80001510 <uvmfree>
}
    80001c0c:	60e2                	ld	ra,24(sp)
    80001c0e:	6442                	ld	s0,16(sp)
    80001c10:	64a2                	ld	s1,8(sp)
    80001c12:	6902                	ld	s2,0(sp)
    80001c14:	6105                	addi	sp,sp,32
    80001c16:	8082                	ret

0000000080001c18 <freeproc>:
{
    80001c18:	1101                	addi	sp,sp,-32
    80001c1a:	ec06                	sd	ra,24(sp)
    80001c1c:	e822                	sd	s0,16(sp)
    80001c1e:	e426                	sd	s1,8(sp)
    80001c20:	1000                	addi	s0,sp,32
    80001c22:	84aa                	mv	s1,a0
  if(p->trapframe)
    80001c24:	6d28                	ld	a0,88(a0)
    80001c26:	c509                	beqz	a0,80001c30 <freeproc+0x18>
    kfree((void*)p->trapframe);
    80001c28:	fffff097          	auipc	ra,0xfffff
    80001c2c:	dbc080e7          	jalr	-580(ra) # 800009e4 <kfree>
  p->trapframe = 0;
    80001c30:	0404bc23          	sd	zero,88(s1)
  if(p->pagetable)
    80001c34:	68a8                	ld	a0,80(s1)
    80001c36:	c511                	beqz	a0,80001c42 <freeproc+0x2a>
    proc_freepagetable(p->pagetable, p->sz);
    80001c38:	64ac                	ld	a1,72(s1)
    80001c3a:	00000097          	auipc	ra,0x0
    80001c3e:	f8c080e7          	jalr	-116(ra) # 80001bc6 <proc_freepagetable>
  p->pagetable = 0;
    80001c42:	0404b823          	sd	zero,80(s1)
  p->sz = 0;
    80001c46:	0404b423          	sd	zero,72(s1)
  p->pid = 0;
    80001c4a:	0204a823          	sw	zero,48(s1)
  p->parent = 0;
    80001c4e:	0204bc23          	sd	zero,56(s1)
  p->name[0] = 0;
    80001c52:	14048c23          	sb	zero,344(s1)
  p->chan = 0;
    80001c56:	0204b023          	sd	zero,32(s1)
  p->killed = 0;
    80001c5a:	0204a423          	sw	zero,40(s1)
  p->xstate = 0;
    80001c5e:	0204a623          	sw	zero,44(s1)
  p->state = UNUSED;
    80001c62:	0004ac23          	sw	zero,24(s1)
}
    80001c66:	60e2                	ld	ra,24(sp)
    80001c68:	6442                	ld	s0,16(sp)
    80001c6a:	64a2                	ld	s1,8(sp)
    80001c6c:	6105                	addi	sp,sp,32
    80001c6e:	8082                	ret

0000000080001c70 <allocproc>:
{
    80001c70:	1101                	addi	sp,sp,-32
    80001c72:	ec06                	sd	ra,24(sp)
    80001c74:	e822                	sd	s0,16(sp)
    80001c76:	e426                	sd	s1,8(sp)
    80001c78:	e04a                	sd	s2,0(sp)
    80001c7a:	1000                	addi	s0,sp,32
  for(p = proc; p < &proc[NPROC]; p++) {
    80001c7c:	00010497          	auipc	s1,0x10
    80001c80:	a5448493          	addi	s1,s1,-1452 # 800116d0 <proc>
    80001c84:	00015917          	auipc	s2,0x15
    80001c88:	44c90913          	addi	s2,s2,1100 # 800170d0 <tickslock>
    acquire(&p->lock);
    80001c8c:	8526                	mv	a0,s1
    80001c8e:	fffff097          	auipc	ra,0xfffff
    80001c92:	f42080e7          	jalr	-190(ra) # 80000bd0 <acquire>
    if(p->state == UNUSED) {
    80001c96:	4c9c                	lw	a5,24(s1)
    80001c98:	cf81                	beqz	a5,80001cb0 <allocproc+0x40>
      release(&p->lock);
    80001c9a:	8526                	mv	a0,s1
    80001c9c:	fffff097          	auipc	ra,0xfffff
    80001ca0:	fe8080e7          	jalr	-24(ra) # 80000c84 <release>
  for(p = proc; p < &proc[NPROC]; p++) {
    80001ca4:	16848493          	addi	s1,s1,360
    80001ca8:	ff2492e3          	bne	s1,s2,80001c8c <allocproc+0x1c>
  return 0;
    80001cac:	4481                	li	s1,0
    80001cae:	a889                	j	80001d00 <allocproc+0x90>
  p->pid = allocpid();
    80001cb0:	00000097          	auipc	ra,0x0
    80001cb4:	e34080e7          	jalr	-460(ra) # 80001ae4 <allocpid>
    80001cb8:	d888                	sw	a0,48(s1)
  p->state = USED;
    80001cba:	4785                	li	a5,1
    80001cbc:	cc9c                	sw	a5,24(s1)
  if((p->trapframe = (struct trapframe *)kalloc()) == 0){
    80001cbe:	fffff097          	auipc	ra,0xfffff
    80001cc2:	e22080e7          	jalr	-478(ra) # 80000ae0 <kalloc>
    80001cc6:	892a                	mv	s2,a0
    80001cc8:	eca8                	sd	a0,88(s1)
    80001cca:	c131                	beqz	a0,80001d0e <allocproc+0x9e>
  p->pagetable = proc_pagetable(p);
    80001ccc:	8526                	mv	a0,s1
    80001cce:	00000097          	auipc	ra,0x0
    80001cd2:	e5c080e7          	jalr	-420(ra) # 80001b2a <proc_pagetable>
    80001cd6:	892a                	mv	s2,a0
    80001cd8:	e8a8                	sd	a0,80(s1)
  if(p->pagetable == 0){
    80001cda:	c531                	beqz	a0,80001d26 <allocproc+0xb6>
  memset(&p->context, 0, sizeof(p->context));
    80001cdc:	07000613          	li	a2,112
    80001ce0:	4581                	li	a1,0
    80001ce2:	06048513          	addi	a0,s1,96
    80001ce6:	fffff097          	auipc	ra,0xfffff
    80001cea:	fe6080e7          	jalr	-26(ra) # 80000ccc <memset>
  p->context.ra = (uint64)forkret;
    80001cee:	00000797          	auipc	a5,0x0
    80001cf2:	db078793          	addi	a5,a5,-592 # 80001a9e <forkret>
    80001cf6:	f0bc                	sd	a5,96(s1)
  p->context.sp = p->kstack + PGSIZE;
    80001cf8:	60bc                	ld	a5,64(s1)
    80001cfa:	6705                	lui	a4,0x1
    80001cfc:	97ba                	add	a5,a5,a4
    80001cfe:	f4bc                	sd	a5,104(s1)
}
    80001d00:	8526                	mv	a0,s1
    80001d02:	60e2                	ld	ra,24(sp)
    80001d04:	6442                	ld	s0,16(sp)
    80001d06:	64a2                	ld	s1,8(sp)
    80001d08:	6902                	ld	s2,0(sp)
    80001d0a:	6105                	addi	sp,sp,32
    80001d0c:	8082                	ret
    freeproc(p);
    80001d0e:	8526                	mv	a0,s1
    80001d10:	00000097          	auipc	ra,0x0
    80001d14:	f08080e7          	jalr	-248(ra) # 80001c18 <freeproc>
    release(&p->lock);
    80001d18:	8526                	mv	a0,s1
    80001d1a:	fffff097          	auipc	ra,0xfffff
    80001d1e:	f6a080e7          	jalr	-150(ra) # 80000c84 <release>
    return 0;
    80001d22:	84ca                	mv	s1,s2
    80001d24:	bff1                	j	80001d00 <allocproc+0x90>
    freeproc(p);
    80001d26:	8526                	mv	a0,s1
    80001d28:	00000097          	auipc	ra,0x0
    80001d2c:	ef0080e7          	jalr	-272(ra) # 80001c18 <freeproc>
    release(&p->lock);
    80001d30:	8526                	mv	a0,s1
    80001d32:	fffff097          	auipc	ra,0xfffff
    80001d36:	f52080e7          	jalr	-174(ra) # 80000c84 <release>
    return 0;
    80001d3a:	84ca                	mv	s1,s2
    80001d3c:	b7d1                	j	80001d00 <allocproc+0x90>

0000000080001d3e <userinit>:
{
    80001d3e:	1101                	addi	sp,sp,-32
    80001d40:	ec06                	sd	ra,24(sp)
    80001d42:	e822                	sd	s0,16(sp)
    80001d44:	e426                	sd	s1,8(sp)
    80001d46:	1000                	addi	s0,sp,32
  p = allocproc();
    80001d48:	00000097          	auipc	ra,0x0
    80001d4c:	f28080e7          	jalr	-216(ra) # 80001c70 <allocproc>
    80001d50:	84aa                	mv	s1,a0
  initproc = p;
    80001d52:	00007797          	auipc	a5,0x7
    80001d56:	2ca7bb23          	sd	a0,726(a5) # 80009028 <initproc>
  uvminit(p->pagetable, initcode, sizeof(initcode));
    80001d5a:	03400613          	li	a2,52
    80001d5e:	00007597          	auipc	a1,0x7
    80001d62:	bd258593          	addi	a1,a1,-1070 # 80008930 <initcode>
    80001d66:	6928                	ld	a0,80(a0)
    80001d68:	fffff097          	auipc	ra,0xfffff
    80001d6c:	5da080e7          	jalr	1498(ra) # 80001342 <uvminit>
  p->sz = PGSIZE;
    80001d70:	6785                	lui	a5,0x1
    80001d72:	e4bc                	sd	a5,72(s1)
  p->trapframe->epc = 0;      // user program counter
    80001d74:	6cb8                	ld	a4,88(s1)
    80001d76:	00073c23          	sd	zero,24(a4) # 1018 <_entry-0x7fffefe8>
  p->trapframe->sp = PGSIZE;  // user stack pointer
    80001d7a:	6cb8                	ld	a4,88(s1)
    80001d7c:	fb1c                	sd	a5,48(a4)
  safestrcpy(p->name, "initcode", sizeof(p->name));
    80001d7e:	4641                	li	a2,16
    80001d80:	00006597          	auipc	a1,0x6
    80001d84:	46858593          	addi	a1,a1,1128 # 800081e8 <digits+0x1a8>
    80001d88:	15848513          	addi	a0,s1,344
    80001d8c:	fffff097          	auipc	ra,0xfffff
    80001d90:	092080e7          	jalr	146(ra) # 80000e1e <safestrcpy>
  p->cwd = namei("/");
    80001d94:	00006517          	auipc	a0,0x6
    80001d98:	46450513          	addi	a0,a0,1124 # 800081f8 <digits+0x1b8>
    80001d9c:	00002097          	auipc	ra,0x2
    80001da0:	0a4080e7          	jalr	164(ra) # 80003e40 <namei>
    80001da4:	14a4b823          	sd	a0,336(s1)
  p->state = RUNNABLE;
    80001da8:	478d                	li	a5,3
    80001daa:	cc9c                	sw	a5,24(s1)
  release(&p->lock);
    80001dac:	8526                	mv	a0,s1
    80001dae:	fffff097          	auipc	ra,0xfffff
    80001db2:	ed6080e7          	jalr	-298(ra) # 80000c84 <release>
}
    80001db6:	60e2                	ld	ra,24(sp)
    80001db8:	6442                	ld	s0,16(sp)
    80001dba:	64a2                	ld	s1,8(sp)
    80001dbc:	6105                	addi	sp,sp,32
    80001dbe:	8082                	ret

0000000080001dc0 <growproc>:
{
    80001dc0:	1101                	addi	sp,sp,-32
    80001dc2:	ec06                	sd	ra,24(sp)
    80001dc4:	e822                	sd	s0,16(sp)
    80001dc6:	e426                	sd	s1,8(sp)
    80001dc8:	e04a                	sd	s2,0(sp)
    80001dca:	1000                	addi	s0,sp,32
    80001dcc:	84aa                	mv	s1,a0
  struct proc *p = myproc();
    80001dce:	00000097          	auipc	ra,0x0
    80001dd2:	c98080e7          	jalr	-872(ra) # 80001a66 <myproc>
    80001dd6:	892a                	mv	s2,a0
  sz = p->sz;
    80001dd8:	652c                	ld	a1,72(a0)
    80001dda:	0005861b          	sext.w	a2,a1
  if(n > 0){
    80001dde:	00904f63          	bgtz	s1,80001dfc <growproc+0x3c>
  } else if(n < 0){
    80001de2:	0204cc63          	bltz	s1,80001e1a <growproc+0x5a>
  p->sz = sz;
    80001de6:	1602                	slli	a2,a2,0x20
    80001de8:	9201                	srli	a2,a2,0x20
    80001dea:	04c93423          	sd	a2,72(s2)
  return 0;
    80001dee:	4501                	li	a0,0
}
    80001df0:	60e2                	ld	ra,24(sp)
    80001df2:	6442                	ld	s0,16(sp)
    80001df4:	64a2                	ld	s1,8(sp)
    80001df6:	6902                	ld	s2,0(sp)
    80001df8:	6105                	addi	sp,sp,32
    80001dfa:	8082                	ret
    if((sz = uvmalloc(p->pagetable, sz, sz + n)) == 0) {
    80001dfc:	9e25                	addw	a2,a2,s1
    80001dfe:	1602                	slli	a2,a2,0x20
    80001e00:	9201                	srli	a2,a2,0x20
    80001e02:	1582                	slli	a1,a1,0x20
    80001e04:	9181                	srli	a1,a1,0x20
    80001e06:	6928                	ld	a0,80(a0)
    80001e08:	fffff097          	auipc	ra,0xfffff
    80001e0c:	5f4080e7          	jalr	1524(ra) # 800013fc <uvmalloc>
    80001e10:	0005061b          	sext.w	a2,a0
    80001e14:	fa69                	bnez	a2,80001de6 <growproc+0x26>
      return -1;
    80001e16:	557d                	li	a0,-1
    80001e18:	bfe1                	j	80001df0 <growproc+0x30>
    sz = uvmdealloc(p->pagetable, sz, sz + n);
    80001e1a:	9e25                	addw	a2,a2,s1
    80001e1c:	1602                	slli	a2,a2,0x20
    80001e1e:	9201                	srli	a2,a2,0x20
    80001e20:	1582                	slli	a1,a1,0x20
    80001e22:	9181                	srli	a1,a1,0x20
    80001e24:	6928                	ld	a0,80(a0)
    80001e26:	fffff097          	auipc	ra,0xfffff
    80001e2a:	58e080e7          	jalr	1422(ra) # 800013b4 <uvmdealloc>
    80001e2e:	0005061b          	sext.w	a2,a0
    80001e32:	bf55                	j	80001de6 <growproc+0x26>

0000000080001e34 <fork>:
{
    80001e34:	7139                	addi	sp,sp,-64
    80001e36:	fc06                	sd	ra,56(sp)
    80001e38:	f822                	sd	s0,48(sp)
    80001e3a:	f426                	sd	s1,40(sp)
    80001e3c:	f04a                	sd	s2,32(sp)
    80001e3e:	ec4e                	sd	s3,24(sp)
    80001e40:	e852                	sd	s4,16(sp)
    80001e42:	e456                	sd	s5,8(sp)
    80001e44:	0080                	addi	s0,sp,64
  struct proc *p = myproc();
    80001e46:	00000097          	auipc	ra,0x0
    80001e4a:	c20080e7          	jalr	-992(ra) # 80001a66 <myproc>
    80001e4e:	8aaa                	mv	s5,a0
  if((np = allocproc()) == 0){
    80001e50:	00000097          	auipc	ra,0x0
    80001e54:	e20080e7          	jalr	-480(ra) # 80001c70 <allocproc>
    80001e58:	10050c63          	beqz	a0,80001f70 <fork+0x13c>
    80001e5c:	8a2a                	mv	s4,a0
  if(uvmcopy(p->pagetable, np->pagetable, p->sz) < 0){
    80001e5e:	048ab603          	ld	a2,72(s5)
    80001e62:	692c                	ld	a1,80(a0)
    80001e64:	050ab503          	ld	a0,80(s5)
    80001e68:	fffff097          	auipc	ra,0xfffff
    80001e6c:	6e0080e7          	jalr	1760(ra) # 80001548 <uvmcopy>
    80001e70:	04054863          	bltz	a0,80001ec0 <fork+0x8c>
  np->sz = p->sz;
    80001e74:	048ab783          	ld	a5,72(s5)
    80001e78:	04fa3423          	sd	a5,72(s4)
  *(np->trapframe) = *(p->trapframe);
    80001e7c:	058ab683          	ld	a3,88(s5)
    80001e80:	87b6                	mv	a5,a3
    80001e82:	058a3703          	ld	a4,88(s4)
    80001e86:	12068693          	addi	a3,a3,288
    80001e8a:	0007b803          	ld	a6,0(a5) # 1000 <_entry-0x7ffff000>
    80001e8e:	6788                	ld	a0,8(a5)
    80001e90:	6b8c                	ld	a1,16(a5)
    80001e92:	6f90                	ld	a2,24(a5)
    80001e94:	01073023          	sd	a6,0(a4)
    80001e98:	e708                	sd	a0,8(a4)
    80001e9a:	eb0c                	sd	a1,16(a4)
    80001e9c:	ef10                	sd	a2,24(a4)
    80001e9e:	02078793          	addi	a5,a5,32
    80001ea2:	02070713          	addi	a4,a4,32
    80001ea6:	fed792e3          	bne	a5,a3,80001e8a <fork+0x56>
  np->trapframe->a0 = 0;
    80001eaa:	058a3783          	ld	a5,88(s4)
    80001eae:	0607b823          	sd	zero,112(a5)
  for(i = 0; i < NOFILE; i++)
    80001eb2:	0d0a8493          	addi	s1,s5,208
    80001eb6:	0d0a0913          	addi	s2,s4,208
    80001eba:	150a8993          	addi	s3,s5,336
    80001ebe:	a00d                	j	80001ee0 <fork+0xac>
    freeproc(np);
    80001ec0:	8552                	mv	a0,s4
    80001ec2:	00000097          	auipc	ra,0x0
    80001ec6:	d56080e7          	jalr	-682(ra) # 80001c18 <freeproc>
    release(&np->lock);
    80001eca:	8552                	mv	a0,s4
    80001ecc:	fffff097          	auipc	ra,0xfffff
    80001ed0:	db8080e7          	jalr	-584(ra) # 80000c84 <release>
    return -1;
    80001ed4:	597d                	li	s2,-1
    80001ed6:	a059                	j	80001f5c <fork+0x128>
  for(i = 0; i < NOFILE; i++)
    80001ed8:	04a1                	addi	s1,s1,8
    80001eda:	0921                	addi	s2,s2,8
    80001edc:	01348b63          	beq	s1,s3,80001ef2 <fork+0xbe>
    if(p->ofile[i])
    80001ee0:	6088                	ld	a0,0(s1)
    80001ee2:	d97d                	beqz	a0,80001ed8 <fork+0xa4>
      np->ofile[i] = filedup(p->ofile[i]);
    80001ee4:	00002097          	auipc	ra,0x2
    80001ee8:	5f6080e7          	jalr	1526(ra) # 800044da <filedup>
    80001eec:	00a93023          	sd	a0,0(s2)
    80001ef0:	b7e5                	j	80001ed8 <fork+0xa4>
  np->cwd = idup(p->cwd);
    80001ef2:	150ab503          	ld	a0,336(s5)
    80001ef6:	00001097          	auipc	ra,0x1
    80001efa:	756080e7          	jalr	1878(ra) # 8000364c <idup>
    80001efe:	14aa3823          	sd	a0,336(s4)
  safestrcpy(np->name, p->name, sizeof(p->name));
    80001f02:	4641                	li	a2,16
    80001f04:	158a8593          	addi	a1,s5,344
    80001f08:	158a0513          	addi	a0,s4,344
    80001f0c:	fffff097          	auipc	ra,0xfffff
    80001f10:	f12080e7          	jalr	-238(ra) # 80000e1e <safestrcpy>
  pid = np->pid;
    80001f14:	030a2903          	lw	s2,48(s4)
  release(&np->lock);
    80001f18:	8552                	mv	a0,s4
    80001f1a:	fffff097          	auipc	ra,0xfffff
    80001f1e:	d6a080e7          	jalr	-662(ra) # 80000c84 <release>
  acquire(&wait_lock);
    80001f22:	0000f497          	auipc	s1,0xf
    80001f26:	39648493          	addi	s1,s1,918 # 800112b8 <wait_lock>
    80001f2a:	8526                	mv	a0,s1
    80001f2c:	fffff097          	auipc	ra,0xfffff
    80001f30:	ca4080e7          	jalr	-860(ra) # 80000bd0 <acquire>
  np->parent = p;
    80001f34:	035a3c23          	sd	s5,56(s4)
  release(&wait_lock);
    80001f38:	8526                	mv	a0,s1
    80001f3a:	fffff097          	auipc	ra,0xfffff
    80001f3e:	d4a080e7          	jalr	-694(ra) # 80000c84 <release>
  acquire(&np->lock);
    80001f42:	8552                	mv	a0,s4
    80001f44:	fffff097          	auipc	ra,0xfffff
    80001f48:	c8c080e7          	jalr	-884(ra) # 80000bd0 <acquire>
  np->state = RUNNABLE;
    80001f4c:	478d                	li	a5,3
    80001f4e:	00fa2c23          	sw	a5,24(s4)
  release(&np->lock);
    80001f52:	8552                	mv	a0,s4
    80001f54:	fffff097          	auipc	ra,0xfffff
    80001f58:	d30080e7          	jalr	-720(ra) # 80000c84 <release>
}
    80001f5c:	854a                	mv	a0,s2
    80001f5e:	70e2                	ld	ra,56(sp)
    80001f60:	7442                	ld	s0,48(sp)
    80001f62:	74a2                	ld	s1,40(sp)
    80001f64:	7902                	ld	s2,32(sp)
    80001f66:	69e2                	ld	s3,24(sp)
    80001f68:	6a42                	ld	s4,16(sp)
    80001f6a:	6aa2                	ld	s5,8(sp)
    80001f6c:	6121                	addi	sp,sp,64
    80001f6e:	8082                	ret
    return -1;
    80001f70:	597d                	li	s2,-1
    80001f72:	b7ed                	j	80001f5c <fork+0x128>

0000000080001f74 <scheduler>:
{
    80001f74:	7139                	addi	sp,sp,-64
    80001f76:	fc06                	sd	ra,56(sp)
    80001f78:	f822                	sd	s0,48(sp)
    80001f7a:	f426                	sd	s1,40(sp)
    80001f7c:	f04a                	sd	s2,32(sp)
    80001f7e:	ec4e                	sd	s3,24(sp)
    80001f80:	e852                	sd	s4,16(sp)
    80001f82:	e456                	sd	s5,8(sp)
    80001f84:	e05a                	sd	s6,0(sp)
    80001f86:	0080                	addi	s0,sp,64
    80001f88:	8792                	mv	a5,tp
  int id = r_tp();
    80001f8a:	2781                	sext.w	a5,a5
  c->proc = 0;
    80001f8c:	00779a93          	slli	s5,a5,0x7
    80001f90:	0000f717          	auipc	a4,0xf
    80001f94:	31070713          	addi	a4,a4,784 # 800112a0 <pid_lock>
    80001f98:	9756                	add	a4,a4,s5
    80001f9a:	02073823          	sd	zero,48(a4)
        swtch(&c->context, &p->context);
    80001f9e:	0000f717          	auipc	a4,0xf
    80001fa2:	33a70713          	addi	a4,a4,826 # 800112d8 <cpus+0x8>
    80001fa6:	9aba                	add	s5,s5,a4
      if(p->state == RUNNABLE) {
    80001fa8:	498d                	li	s3,3
        p->state = RUNNING;
    80001faa:	4b11                	li	s6,4
        c->proc = p;
    80001fac:	079e                	slli	a5,a5,0x7
    80001fae:	0000fa17          	auipc	s4,0xf
    80001fb2:	2f2a0a13          	addi	s4,s4,754 # 800112a0 <pid_lock>
    80001fb6:	9a3e                	add	s4,s4,a5
    for(p = proc; p < &proc[NPROC]; p++) {
    80001fb8:	00015917          	auipc	s2,0x15
    80001fbc:	11890913          	addi	s2,s2,280 # 800170d0 <tickslock>
  asm volatile("csrr %0, sstatus" : "=r" (x) );
    80001fc0:	100027f3          	csrr	a5,sstatus
  w_sstatus(r_sstatus() | SSTATUS_SIE);
    80001fc4:	0027e793          	ori	a5,a5,2
  asm volatile("csrw sstatus, %0" : : "r" (x));
    80001fc8:	10079073          	csrw	sstatus,a5
    80001fcc:	0000f497          	auipc	s1,0xf
    80001fd0:	70448493          	addi	s1,s1,1796 # 800116d0 <proc>
    80001fd4:	a811                	j	80001fe8 <scheduler+0x74>
      release(&p->lock);
    80001fd6:	8526                	mv	a0,s1
    80001fd8:	fffff097          	auipc	ra,0xfffff
    80001fdc:	cac080e7          	jalr	-852(ra) # 80000c84 <release>
    for(p = proc; p < &proc[NPROC]; p++) {
    80001fe0:	16848493          	addi	s1,s1,360
    80001fe4:	fd248ee3          	beq	s1,s2,80001fc0 <scheduler+0x4c>
      acquire(&p->lock);
    80001fe8:	8526                	mv	a0,s1
    80001fea:	fffff097          	auipc	ra,0xfffff
    80001fee:	be6080e7          	jalr	-1050(ra) # 80000bd0 <acquire>
      if(p->state == RUNNABLE) {
    80001ff2:	4c9c                	lw	a5,24(s1)
    80001ff4:	ff3791e3          	bne	a5,s3,80001fd6 <scheduler+0x62>
        p->state = RUNNING;
    80001ff8:	0164ac23          	sw	s6,24(s1)
        c->proc = p;
    80001ffc:	029a3823          	sd	s1,48(s4)
        swtch(&c->context, &p->context);
    80002000:	06048593          	addi	a1,s1,96
    80002004:	8556                	mv	a0,s5
    80002006:	00000097          	auipc	ra,0x0
    8000200a:	620080e7          	jalr	1568(ra) # 80002626 <swtch>
        c->proc = 0;
    8000200e:	020a3823          	sd	zero,48(s4)
    80002012:	b7d1                	j	80001fd6 <scheduler+0x62>

0000000080002014 <sched>:
{
    80002014:	7179                	addi	sp,sp,-48
    80002016:	f406                	sd	ra,40(sp)
    80002018:	f022                	sd	s0,32(sp)
    8000201a:	ec26                	sd	s1,24(sp)
    8000201c:	e84a                	sd	s2,16(sp)
    8000201e:	e44e                	sd	s3,8(sp)
    80002020:	1800                	addi	s0,sp,48
  struct proc *p = myproc();
    80002022:	00000097          	auipc	ra,0x0
    80002026:	a44080e7          	jalr	-1468(ra) # 80001a66 <myproc>
    8000202a:	84aa                	mv	s1,a0
  if(!holding(&p->lock))
    8000202c:	fffff097          	auipc	ra,0xfffff
    80002030:	b2a080e7          	jalr	-1238(ra) # 80000b56 <holding>
    80002034:	c93d                	beqz	a0,800020aa <sched+0x96>
  asm volatile("mv %0, tp" : "=r" (x) );
    80002036:	8792                	mv	a5,tp
  if(mycpu()->noff != 1)
    80002038:	2781                	sext.w	a5,a5
    8000203a:	079e                	slli	a5,a5,0x7
    8000203c:	0000f717          	auipc	a4,0xf
    80002040:	26470713          	addi	a4,a4,612 # 800112a0 <pid_lock>
    80002044:	97ba                	add	a5,a5,a4
    80002046:	0a87a703          	lw	a4,168(a5)
    8000204a:	4785                	li	a5,1
    8000204c:	06f71763          	bne	a4,a5,800020ba <sched+0xa6>
  if(p->state == RUNNING)
    80002050:	4c98                	lw	a4,24(s1)
    80002052:	4791                	li	a5,4
    80002054:	06f70b63          	beq	a4,a5,800020ca <sched+0xb6>
  asm volatile("csrr %0, sstatus" : "=r" (x) );
    80002058:	100027f3          	csrr	a5,sstatus
  return (x & SSTATUS_SIE) != 0;
    8000205c:	8b89                	andi	a5,a5,2
  if(intr_get())
    8000205e:	efb5                	bnez	a5,800020da <sched+0xc6>
  asm volatile("mv %0, tp" : "=r" (x) );
    80002060:	8792                	mv	a5,tp
  intena = mycpu()->intena;
    80002062:	0000f917          	auipc	s2,0xf
    80002066:	23e90913          	addi	s2,s2,574 # 800112a0 <pid_lock>
    8000206a:	2781                	sext.w	a5,a5
    8000206c:	079e                	slli	a5,a5,0x7
    8000206e:	97ca                	add	a5,a5,s2
    80002070:	0ac7a983          	lw	s3,172(a5)
    80002074:	8792                	mv	a5,tp
  swtch(&p->context, &mycpu()->context);
    80002076:	2781                	sext.w	a5,a5
    80002078:	079e                	slli	a5,a5,0x7
    8000207a:	0000f597          	auipc	a1,0xf
    8000207e:	25e58593          	addi	a1,a1,606 # 800112d8 <cpus+0x8>
    80002082:	95be                	add	a1,a1,a5
    80002084:	06048513          	addi	a0,s1,96
    80002088:	00000097          	auipc	ra,0x0
    8000208c:	59e080e7          	jalr	1438(ra) # 80002626 <swtch>
    80002090:	8792                	mv	a5,tp
  mycpu()->intena = intena;
    80002092:	2781                	sext.w	a5,a5
    80002094:	079e                	slli	a5,a5,0x7
    80002096:	97ca                	add	a5,a5,s2
    80002098:	0b37a623          	sw	s3,172(a5)
}
    8000209c:	70a2                	ld	ra,40(sp)
    8000209e:	7402                	ld	s0,32(sp)
    800020a0:	64e2                	ld	s1,24(sp)
    800020a2:	6942                	ld	s2,16(sp)
    800020a4:	69a2                	ld	s3,8(sp)
    800020a6:	6145                	addi	sp,sp,48
    800020a8:	8082                	ret
    panic("sched p->lock");
    800020aa:	00006517          	auipc	a0,0x6
    800020ae:	15650513          	addi	a0,a0,342 # 80008200 <digits+0x1c0>
    800020b2:	ffffe097          	auipc	ra,0xffffe
    800020b6:	486080e7          	jalr	1158(ra) # 80000538 <panic>
    panic("sched locks");
    800020ba:	00006517          	auipc	a0,0x6
    800020be:	15650513          	addi	a0,a0,342 # 80008210 <digits+0x1d0>
    800020c2:	ffffe097          	auipc	ra,0xffffe
    800020c6:	476080e7          	jalr	1142(ra) # 80000538 <panic>
    panic("sched running");
    800020ca:	00006517          	auipc	a0,0x6
    800020ce:	15650513          	addi	a0,a0,342 # 80008220 <digits+0x1e0>
    800020d2:	ffffe097          	auipc	ra,0xffffe
    800020d6:	466080e7          	jalr	1126(ra) # 80000538 <panic>
    panic("sched interruptible");
    800020da:	00006517          	auipc	a0,0x6
    800020de:	15650513          	addi	a0,a0,342 # 80008230 <digits+0x1f0>
    800020e2:	ffffe097          	auipc	ra,0xffffe
    800020e6:	456080e7          	jalr	1110(ra) # 80000538 <panic>

00000000800020ea <yield>:
{
    800020ea:	1101                	addi	sp,sp,-32
    800020ec:	ec06                	sd	ra,24(sp)
    800020ee:	e822                	sd	s0,16(sp)
    800020f0:	e426                	sd	s1,8(sp)
    800020f2:	1000                	addi	s0,sp,32
  struct proc *p = myproc();
    800020f4:	00000097          	auipc	ra,0x0
    800020f8:	972080e7          	jalr	-1678(ra) # 80001a66 <myproc>
    800020fc:	84aa                	mv	s1,a0
  acquire(&p->lock);
    800020fe:	fffff097          	auipc	ra,0xfffff
    80002102:	ad2080e7          	jalr	-1326(ra) # 80000bd0 <acquire>
  p->state = RUNNABLE;
    80002106:	478d                	li	a5,3
    80002108:	cc9c                	sw	a5,24(s1)
  sched();
    8000210a:	00000097          	auipc	ra,0x0
    8000210e:	f0a080e7          	jalr	-246(ra) # 80002014 <sched>
  release(&p->lock);
    80002112:	8526                	mv	a0,s1
    80002114:	fffff097          	auipc	ra,0xfffff
    80002118:	b70080e7          	jalr	-1168(ra) # 80000c84 <release>
}
    8000211c:	60e2                	ld	ra,24(sp)
    8000211e:	6442                	ld	s0,16(sp)
    80002120:	64a2                	ld	s1,8(sp)
    80002122:	6105                	addi	sp,sp,32
    80002124:	8082                	ret

0000000080002126 <sleep>:

// Atomically release lock and sleep on chan.
// Reacquires lock when awakened.
void
sleep(void *chan, struct spinlock *lk)
{
    80002126:	7179                	addi	sp,sp,-48
    80002128:	f406                	sd	ra,40(sp)
    8000212a:	f022                	sd	s0,32(sp)
    8000212c:	ec26                	sd	s1,24(sp)
    8000212e:	e84a                	sd	s2,16(sp)
    80002130:	e44e                	sd	s3,8(sp)
    80002132:	1800                	addi	s0,sp,48
    80002134:	89aa                	mv	s3,a0
    80002136:	892e                	mv	s2,a1
  struct proc *p = myproc();
    80002138:	00000097          	auipc	ra,0x0
    8000213c:	92e080e7          	jalr	-1746(ra) # 80001a66 <myproc>
    80002140:	84aa                	mv	s1,a0
  // Once we hold p->lock, we can be
  // guaranteed that we won't miss any wakeup
  // (wakeup locks p->lock),
  // so it's okay to release lk.

  acquire(&p->lock);  //DOC: sleeplock1
    80002142:	fffff097          	auipc	ra,0xfffff
    80002146:	a8e080e7          	jalr	-1394(ra) # 80000bd0 <acquire>
  release(lk);
    8000214a:	854a                	mv	a0,s2
    8000214c:	fffff097          	auipc	ra,0xfffff
    80002150:	b38080e7          	jalr	-1224(ra) # 80000c84 <release>

  // Go to sleep.
  p->chan = chan;
    80002154:	0334b023          	sd	s3,32(s1)
  p->state = SLEEPING;
    80002158:	4789                	li	a5,2
    8000215a:	cc9c                	sw	a5,24(s1)

  sched();
    8000215c:	00000097          	auipc	ra,0x0
    80002160:	eb8080e7          	jalr	-328(ra) # 80002014 <sched>

  // Tidy up.
  p->chan = 0;
    80002164:	0204b023          	sd	zero,32(s1)

  // Reacquire original lock.
  release(&p->lock);
    80002168:	8526                	mv	a0,s1
    8000216a:	fffff097          	auipc	ra,0xfffff
    8000216e:	b1a080e7          	jalr	-1254(ra) # 80000c84 <release>
  acquire(lk);
    80002172:	854a                	mv	a0,s2
    80002174:	fffff097          	auipc	ra,0xfffff
    80002178:	a5c080e7          	jalr	-1444(ra) # 80000bd0 <acquire>
}
    8000217c:	70a2                	ld	ra,40(sp)
    8000217e:	7402                	ld	s0,32(sp)
    80002180:	64e2                	ld	s1,24(sp)
    80002182:	6942                	ld	s2,16(sp)
    80002184:	69a2                	ld	s3,8(sp)
    80002186:	6145                	addi	sp,sp,48
    80002188:	8082                	ret

000000008000218a <wait>:
{
    8000218a:	715d                	addi	sp,sp,-80
    8000218c:	e486                	sd	ra,72(sp)
    8000218e:	e0a2                	sd	s0,64(sp)
    80002190:	fc26                	sd	s1,56(sp)
    80002192:	f84a                	sd	s2,48(sp)
    80002194:	f44e                	sd	s3,40(sp)
    80002196:	f052                	sd	s4,32(sp)
    80002198:	ec56                	sd	s5,24(sp)
    8000219a:	e85a                	sd	s6,16(sp)
    8000219c:	e45e                	sd	s7,8(sp)
    8000219e:	e062                	sd	s8,0(sp)
    800021a0:	0880                	addi	s0,sp,80
    800021a2:	8b2a                	mv	s6,a0
  struct proc *p = myproc();
    800021a4:	00000097          	auipc	ra,0x0
    800021a8:	8c2080e7          	jalr	-1854(ra) # 80001a66 <myproc>
    800021ac:	892a                	mv	s2,a0
  acquire(&wait_lock);
    800021ae:	0000f517          	auipc	a0,0xf
    800021b2:	10a50513          	addi	a0,a0,266 # 800112b8 <wait_lock>
    800021b6:	fffff097          	auipc	ra,0xfffff
    800021ba:	a1a080e7          	jalr	-1510(ra) # 80000bd0 <acquire>
    havekids = 0;
    800021be:	4b81                	li	s7,0
        if(np->state == ZOMBIE){
    800021c0:	4a15                	li	s4,5
        havekids = 1;
    800021c2:	4a85                	li	s5,1
    for(np = proc; np < &proc[NPROC]; np++){
    800021c4:	00015997          	auipc	s3,0x15
    800021c8:	f0c98993          	addi	s3,s3,-244 # 800170d0 <tickslock>
    sleep(p, &wait_lock);  //DOC: wait-sleep
    800021cc:	0000fc17          	auipc	s8,0xf
    800021d0:	0ecc0c13          	addi	s8,s8,236 # 800112b8 <wait_lock>
    havekids = 0;
    800021d4:	875e                	mv	a4,s7
    for(np = proc; np < &proc[NPROC]; np++){
    800021d6:	0000f497          	auipc	s1,0xf
    800021da:	4fa48493          	addi	s1,s1,1274 # 800116d0 <proc>
    800021de:	a0bd                	j	8000224c <wait+0xc2>
          pid = np->pid;
    800021e0:	0304a983          	lw	s3,48(s1)
          if(addr != 0 && copyout(p->pagetable, addr, (char *)&np->xstate,
    800021e4:	000b0e63          	beqz	s6,80002200 <wait+0x76>
    800021e8:	4691                	li	a3,4
    800021ea:	02c48613          	addi	a2,s1,44
    800021ee:	85da                	mv	a1,s6
    800021f0:	05093503          	ld	a0,80(s2)
    800021f4:	fffff097          	auipc	ra,0xfffff
    800021f8:	458080e7          	jalr	1112(ra) # 8000164c <copyout>
    800021fc:	02054563          	bltz	a0,80002226 <wait+0x9c>
          freeproc(np);
    80002200:	8526                	mv	a0,s1
    80002202:	00000097          	auipc	ra,0x0
    80002206:	a16080e7          	jalr	-1514(ra) # 80001c18 <freeproc>
          release(&np->lock);
    8000220a:	8526                	mv	a0,s1
    8000220c:	fffff097          	auipc	ra,0xfffff
    80002210:	a78080e7          	jalr	-1416(ra) # 80000c84 <release>
          release(&wait_lock);
    80002214:	0000f517          	auipc	a0,0xf
    80002218:	0a450513          	addi	a0,a0,164 # 800112b8 <wait_lock>
    8000221c:	fffff097          	auipc	ra,0xfffff
    80002220:	a68080e7          	jalr	-1432(ra) # 80000c84 <release>
          return pid;
    80002224:	a09d                	j	8000228a <wait+0x100>
            release(&np->lock);
    80002226:	8526                	mv	a0,s1
    80002228:	fffff097          	auipc	ra,0xfffff
    8000222c:	a5c080e7          	jalr	-1444(ra) # 80000c84 <release>
            release(&wait_lock);
    80002230:	0000f517          	auipc	a0,0xf
    80002234:	08850513          	addi	a0,a0,136 # 800112b8 <wait_lock>
    80002238:	fffff097          	auipc	ra,0xfffff
    8000223c:	a4c080e7          	jalr	-1460(ra) # 80000c84 <release>
            return -1;
    80002240:	59fd                	li	s3,-1
    80002242:	a0a1                	j	8000228a <wait+0x100>
    for(np = proc; np < &proc[NPROC]; np++){
    80002244:	16848493          	addi	s1,s1,360
    80002248:	03348463          	beq	s1,s3,80002270 <wait+0xe6>
      if(np->parent == p){
    8000224c:	7c9c                	ld	a5,56(s1)
    8000224e:	ff279be3          	bne	a5,s2,80002244 <wait+0xba>
        acquire(&np->lock);
    80002252:	8526                	mv	a0,s1
    80002254:	fffff097          	auipc	ra,0xfffff
    80002258:	97c080e7          	jalr	-1668(ra) # 80000bd0 <acquire>
        if(np->state == ZOMBIE){
    8000225c:	4c9c                	lw	a5,24(s1)
    8000225e:	f94781e3          	beq	a5,s4,800021e0 <wait+0x56>
        release(&np->lock);
    80002262:	8526                	mv	a0,s1
    80002264:	fffff097          	auipc	ra,0xfffff
    80002268:	a20080e7          	jalr	-1504(ra) # 80000c84 <release>
        havekids = 1;
    8000226c:	8756                	mv	a4,s5
    8000226e:	bfd9                	j	80002244 <wait+0xba>
    if(!havekids || p->killed){
    80002270:	c701                	beqz	a4,80002278 <wait+0xee>
    80002272:	02892783          	lw	a5,40(s2)
    80002276:	c79d                	beqz	a5,800022a4 <wait+0x11a>
      release(&wait_lock);
    80002278:	0000f517          	auipc	a0,0xf
    8000227c:	04050513          	addi	a0,a0,64 # 800112b8 <wait_lock>
    80002280:	fffff097          	auipc	ra,0xfffff
    80002284:	a04080e7          	jalr	-1532(ra) # 80000c84 <release>
      return -1;
    80002288:	59fd                	li	s3,-1
}
    8000228a:	854e                	mv	a0,s3
    8000228c:	60a6                	ld	ra,72(sp)
    8000228e:	6406                	ld	s0,64(sp)
    80002290:	74e2                	ld	s1,56(sp)
    80002292:	7942                	ld	s2,48(sp)
    80002294:	79a2                	ld	s3,40(sp)
    80002296:	7a02                	ld	s4,32(sp)
    80002298:	6ae2                	ld	s5,24(sp)
    8000229a:	6b42                	ld	s6,16(sp)
    8000229c:	6ba2                	ld	s7,8(sp)
    8000229e:	6c02                	ld	s8,0(sp)
    800022a0:	6161                	addi	sp,sp,80
    800022a2:	8082                	ret
    sleep(p, &wait_lock);  //DOC: wait-sleep
    800022a4:	85e2                	mv	a1,s8
    800022a6:	854a                	mv	a0,s2
    800022a8:	00000097          	auipc	ra,0x0
    800022ac:	e7e080e7          	jalr	-386(ra) # 80002126 <sleep>
    havekids = 0;
    800022b0:	b715                	j	800021d4 <wait+0x4a>

00000000800022b2 <wakeup>:

// Wake up all processes sleeping on chan.
// Must be called without any p->lock.
void
wakeup(void *chan)
{
    800022b2:	7139                	addi	sp,sp,-64
    800022b4:	fc06                	sd	ra,56(sp)
    800022b6:	f822                	sd	s0,48(sp)
    800022b8:	f426                	sd	s1,40(sp)
    800022ba:	f04a                	sd	s2,32(sp)
    800022bc:	ec4e                	sd	s3,24(sp)
    800022be:	e852                	sd	s4,16(sp)
    800022c0:	e456                	sd	s5,8(sp)
    800022c2:	0080                	addi	s0,sp,64
    800022c4:	8a2a                	mv	s4,a0
  struct proc *p;

  for(p = proc; p < &proc[NPROC]; p++) {
    800022c6:	0000f497          	auipc	s1,0xf
    800022ca:	40a48493          	addi	s1,s1,1034 # 800116d0 <proc>
    if(p != myproc()){
      acquire(&p->lock);
      if(p->state == SLEEPING && p->chan == chan) {
    800022ce:	4989                	li	s3,2
        p->state = RUNNABLE;
    800022d0:	4a8d                	li	s5,3
  for(p = proc; p < &proc[NPROC]; p++) {
    800022d2:	00015917          	auipc	s2,0x15
    800022d6:	dfe90913          	addi	s2,s2,-514 # 800170d0 <tickslock>
    800022da:	a811                	j	800022ee <wakeup+0x3c>
      }
      release(&p->lock);
    800022dc:	8526                	mv	a0,s1
    800022de:	fffff097          	auipc	ra,0xfffff
    800022e2:	9a6080e7          	jalr	-1626(ra) # 80000c84 <release>
  for(p = proc; p < &proc[NPROC]; p++) {
    800022e6:	16848493          	addi	s1,s1,360
    800022ea:	03248663          	beq	s1,s2,80002316 <wakeup+0x64>
    if(p != myproc()){
    800022ee:	fffff097          	auipc	ra,0xfffff
    800022f2:	778080e7          	jalr	1912(ra) # 80001a66 <myproc>
    800022f6:	fea488e3          	beq	s1,a0,800022e6 <wakeup+0x34>
      acquire(&p->lock);
    800022fa:	8526                	mv	a0,s1
    800022fc:	fffff097          	auipc	ra,0xfffff
    80002300:	8d4080e7          	jalr	-1836(ra) # 80000bd0 <acquire>
      if(p->state == SLEEPING && p->chan == chan) {
    80002304:	4c9c                	lw	a5,24(s1)
    80002306:	fd379be3          	bne	a5,s3,800022dc <wakeup+0x2a>
    8000230a:	709c                	ld	a5,32(s1)
    8000230c:	fd4798e3          	bne	a5,s4,800022dc <wakeup+0x2a>
        p->state = RUNNABLE;
    80002310:	0154ac23          	sw	s5,24(s1)
    80002314:	b7e1                	j	800022dc <wakeup+0x2a>
    }
  }
}
    80002316:	70e2                	ld	ra,56(sp)
    80002318:	7442                	ld	s0,48(sp)
    8000231a:	74a2                	ld	s1,40(sp)
    8000231c:	7902                	ld	s2,32(sp)
    8000231e:	69e2                	ld	s3,24(sp)
    80002320:	6a42                	ld	s4,16(sp)
    80002322:	6aa2                	ld	s5,8(sp)
    80002324:	6121                	addi	sp,sp,64
    80002326:	8082                	ret

0000000080002328 <reparent>:
{
    80002328:	7179                	addi	sp,sp,-48
    8000232a:	f406                	sd	ra,40(sp)
    8000232c:	f022                	sd	s0,32(sp)
    8000232e:	ec26                	sd	s1,24(sp)
    80002330:	e84a                	sd	s2,16(sp)
    80002332:	e44e                	sd	s3,8(sp)
    80002334:	e052                	sd	s4,0(sp)
    80002336:	1800                	addi	s0,sp,48
    80002338:	892a                	mv	s2,a0
  for(pp = proc; pp < &proc[NPROC]; pp++){
    8000233a:	0000f497          	auipc	s1,0xf
    8000233e:	39648493          	addi	s1,s1,918 # 800116d0 <proc>
      pp->parent = initproc;
    80002342:	00007a17          	auipc	s4,0x7
    80002346:	ce6a0a13          	addi	s4,s4,-794 # 80009028 <initproc>
  for(pp = proc; pp < &proc[NPROC]; pp++){
    8000234a:	00015997          	auipc	s3,0x15
    8000234e:	d8698993          	addi	s3,s3,-634 # 800170d0 <tickslock>
    80002352:	a029                	j	8000235c <reparent+0x34>
    80002354:	16848493          	addi	s1,s1,360
    80002358:	01348d63          	beq	s1,s3,80002372 <reparent+0x4a>
    if(pp->parent == p){
    8000235c:	7c9c                	ld	a5,56(s1)
    8000235e:	ff279be3          	bne	a5,s2,80002354 <reparent+0x2c>
      pp->parent = initproc;
    80002362:	000a3503          	ld	a0,0(s4)
    80002366:	fc88                	sd	a0,56(s1)
      wakeup(initproc);
    80002368:	00000097          	auipc	ra,0x0
    8000236c:	f4a080e7          	jalr	-182(ra) # 800022b2 <wakeup>
    80002370:	b7d5                	j	80002354 <reparent+0x2c>
}
    80002372:	70a2                	ld	ra,40(sp)
    80002374:	7402                	ld	s0,32(sp)
    80002376:	64e2                	ld	s1,24(sp)
    80002378:	6942                	ld	s2,16(sp)
    8000237a:	69a2                	ld	s3,8(sp)
    8000237c:	6a02                	ld	s4,0(sp)
    8000237e:	6145                	addi	sp,sp,48
    80002380:	8082                	ret

0000000080002382 <exit>:
{
    80002382:	7179                	addi	sp,sp,-48
    80002384:	f406                	sd	ra,40(sp)
    80002386:	f022                	sd	s0,32(sp)
    80002388:	ec26                	sd	s1,24(sp)
    8000238a:	e84a                	sd	s2,16(sp)
    8000238c:	e44e                	sd	s3,8(sp)
    8000238e:	e052                	sd	s4,0(sp)
    80002390:	1800                	addi	s0,sp,48
    80002392:	8a2a                	mv	s4,a0
  struct proc *p = myproc();
    80002394:	fffff097          	auipc	ra,0xfffff
    80002398:	6d2080e7          	jalr	1746(ra) # 80001a66 <myproc>
    8000239c:	89aa                	mv	s3,a0
  if(p == initproc)
    8000239e:	00007797          	auipc	a5,0x7
    800023a2:	c8a7b783          	ld	a5,-886(a5) # 80009028 <initproc>
    800023a6:	0d050493          	addi	s1,a0,208
    800023aa:	15050913          	addi	s2,a0,336
    800023ae:	02a79363          	bne	a5,a0,800023d4 <exit+0x52>
    panic("init exiting");
    800023b2:	00006517          	auipc	a0,0x6
    800023b6:	e9650513          	addi	a0,a0,-362 # 80008248 <digits+0x208>
    800023ba:	ffffe097          	auipc	ra,0xffffe
    800023be:	17e080e7          	jalr	382(ra) # 80000538 <panic>
      fileclose(f);
    800023c2:	00002097          	auipc	ra,0x2
    800023c6:	16a080e7          	jalr	362(ra) # 8000452c <fileclose>
      p->ofile[fd] = 0;
    800023ca:	0004b023          	sd	zero,0(s1)
  for(int fd = 0; fd < NOFILE; fd++){
    800023ce:	04a1                	addi	s1,s1,8
    800023d0:	01248563          	beq	s1,s2,800023da <exit+0x58>
    if(p->ofile[fd]){
    800023d4:	6088                	ld	a0,0(s1)
    800023d6:	f575                	bnez	a0,800023c2 <exit+0x40>
    800023d8:	bfdd                	j	800023ce <exit+0x4c>
  begin_op();
    800023da:	00002097          	auipc	ra,0x2
    800023de:	c86080e7          	jalr	-890(ra) # 80004060 <begin_op>
  iput(p->cwd);
    800023e2:	1509b503          	ld	a0,336(s3)
    800023e6:	00001097          	auipc	ra,0x1
    800023ea:	45e080e7          	jalr	1118(ra) # 80003844 <iput>
  end_op();
    800023ee:	00002097          	auipc	ra,0x2
    800023f2:	cf2080e7          	jalr	-782(ra) # 800040e0 <end_op>
  p->cwd = 0;
    800023f6:	1409b823          	sd	zero,336(s3)
  acquire(&wait_lock);
    800023fa:	0000f497          	auipc	s1,0xf
    800023fe:	ebe48493          	addi	s1,s1,-322 # 800112b8 <wait_lock>
    80002402:	8526                	mv	a0,s1
    80002404:	ffffe097          	auipc	ra,0xffffe
    80002408:	7cc080e7          	jalr	1996(ra) # 80000bd0 <acquire>
  reparent(p);
    8000240c:	854e                	mv	a0,s3
    8000240e:	00000097          	auipc	ra,0x0
    80002412:	f1a080e7          	jalr	-230(ra) # 80002328 <reparent>
  wakeup(p->parent);
    80002416:	0389b503          	ld	a0,56(s3)
    8000241a:	00000097          	auipc	ra,0x0
    8000241e:	e98080e7          	jalr	-360(ra) # 800022b2 <wakeup>
  acquire(&p->lock);
    80002422:	854e                	mv	a0,s3
    80002424:	ffffe097          	auipc	ra,0xffffe
    80002428:	7ac080e7          	jalr	1964(ra) # 80000bd0 <acquire>
  p->xstate = status;
    8000242c:	0349a623          	sw	s4,44(s3)
  p->state = ZOMBIE;
    80002430:	4795                	li	a5,5
    80002432:	00f9ac23          	sw	a5,24(s3)
  release(&wait_lock);
    80002436:	8526                	mv	a0,s1
    80002438:	fffff097          	auipc	ra,0xfffff
    8000243c:	84c080e7          	jalr	-1972(ra) # 80000c84 <release>
  sched();
    80002440:	00000097          	auipc	ra,0x0
    80002444:	bd4080e7          	jalr	-1068(ra) # 80002014 <sched>
  panic("zombie exit");
    80002448:	00006517          	auipc	a0,0x6
    8000244c:	e1050513          	addi	a0,a0,-496 # 80008258 <digits+0x218>
    80002450:	ffffe097          	auipc	ra,0xffffe
    80002454:	0e8080e7          	jalr	232(ra) # 80000538 <panic>

0000000080002458 <kill>:
// Kill the process with the given pid.
// The victim won't exit until it tries to return
// to user space (see usertrap() in trap.c).
int
kill(int pid)
{
    80002458:	7179                	addi	sp,sp,-48
    8000245a:	f406                	sd	ra,40(sp)
    8000245c:	f022                	sd	s0,32(sp)
    8000245e:	ec26                	sd	s1,24(sp)
    80002460:	e84a                	sd	s2,16(sp)
    80002462:	e44e                	sd	s3,8(sp)
    80002464:	1800                	addi	s0,sp,48
    80002466:	892a                	mv	s2,a0
  struct proc *p;

  for(p = proc; p < &proc[NPROC]; p++){
    80002468:	0000f497          	auipc	s1,0xf
    8000246c:	26848493          	addi	s1,s1,616 # 800116d0 <proc>
    80002470:	00015997          	auipc	s3,0x15
    80002474:	c6098993          	addi	s3,s3,-928 # 800170d0 <tickslock>
    acquire(&p->lock);
    80002478:	8526                	mv	a0,s1
    8000247a:	ffffe097          	auipc	ra,0xffffe
    8000247e:	756080e7          	jalr	1878(ra) # 80000bd0 <acquire>
    if(p->pid == pid){
    80002482:	589c                	lw	a5,48(s1)
    80002484:	01278d63          	beq	a5,s2,8000249e <kill+0x46>
        p->state = RUNNABLE;
      }
      release(&p->lock);
      return 0;
    }
    release(&p->lock);
    80002488:	8526                	mv	a0,s1
    8000248a:	ffffe097          	auipc	ra,0xffffe
    8000248e:	7fa080e7          	jalr	2042(ra) # 80000c84 <release>
  for(p = proc; p < &proc[NPROC]; p++){
    80002492:	16848493          	addi	s1,s1,360
    80002496:	ff3491e3          	bne	s1,s3,80002478 <kill+0x20>
  }
  return -1;
    8000249a:	557d                	li	a0,-1
    8000249c:	a829                	j	800024b6 <kill+0x5e>
      p->killed = 1;
    8000249e:	4785                	li	a5,1
    800024a0:	d49c                	sw	a5,40(s1)
      if(p->state == SLEEPING){
    800024a2:	4c98                	lw	a4,24(s1)
    800024a4:	4789                	li	a5,2
    800024a6:	00f70f63          	beq	a4,a5,800024c4 <kill+0x6c>
      release(&p->lock);
    800024aa:	8526                	mv	a0,s1
    800024ac:	ffffe097          	auipc	ra,0xffffe
    800024b0:	7d8080e7          	jalr	2008(ra) # 80000c84 <release>
      return 0;
    800024b4:	4501                	li	a0,0
}
    800024b6:	70a2                	ld	ra,40(sp)
    800024b8:	7402                	ld	s0,32(sp)
    800024ba:	64e2                	ld	s1,24(sp)
    800024bc:	6942                	ld	s2,16(sp)
    800024be:	69a2                	ld	s3,8(sp)
    800024c0:	6145                	addi	sp,sp,48
    800024c2:	8082                	ret
        p->state = RUNNABLE;
    800024c4:	478d                	li	a5,3
    800024c6:	cc9c                	sw	a5,24(s1)
    800024c8:	b7cd                	j	800024aa <kill+0x52>

00000000800024ca <either_copyout>:
// Copy to either a user address, or kernel address,
// depending on usr_dst.
// Returns 0 on success, -1 on error.
int
either_copyout(int user_dst, uint64 dst, void *src, uint64 len)
{
    800024ca:	7179                	addi	sp,sp,-48
    800024cc:	f406                	sd	ra,40(sp)
    800024ce:	f022                	sd	s0,32(sp)
    800024d0:	ec26                	sd	s1,24(sp)
    800024d2:	e84a                	sd	s2,16(sp)
    800024d4:	e44e                	sd	s3,8(sp)
    800024d6:	e052                	sd	s4,0(sp)
    800024d8:	1800                	addi	s0,sp,48
    800024da:	84aa                	mv	s1,a0
    800024dc:	892e                	mv	s2,a1
    800024de:	89b2                	mv	s3,a2
    800024e0:	8a36                	mv	s4,a3
  struct proc *p = myproc();
    800024e2:	fffff097          	auipc	ra,0xfffff
    800024e6:	584080e7          	jalr	1412(ra) # 80001a66 <myproc>
  if(user_dst){
    800024ea:	c08d                	beqz	s1,8000250c <either_copyout+0x42>
    return copyout(p->pagetable, dst, src, len);
    800024ec:	86d2                	mv	a3,s4
    800024ee:	864e                	mv	a2,s3
    800024f0:	85ca                	mv	a1,s2
    800024f2:	6928                	ld	a0,80(a0)
    800024f4:	fffff097          	auipc	ra,0xfffff
    800024f8:	158080e7          	jalr	344(ra) # 8000164c <copyout>
  } else {
    memmove((char *)dst, src, len);
    return 0;
  }
}
    800024fc:	70a2                	ld	ra,40(sp)
    800024fe:	7402                	ld	s0,32(sp)
    80002500:	64e2                	ld	s1,24(sp)
    80002502:	6942                	ld	s2,16(sp)
    80002504:	69a2                	ld	s3,8(sp)
    80002506:	6a02                	ld	s4,0(sp)
    80002508:	6145                	addi	sp,sp,48
    8000250a:	8082                	ret
    memmove((char *)dst, src, len);
    8000250c:	000a061b          	sext.w	a2,s4
    80002510:	85ce                	mv	a1,s3
    80002512:	854a                	mv	a0,s2
    80002514:	fffff097          	auipc	ra,0xfffff
    80002518:	814080e7          	jalr	-2028(ra) # 80000d28 <memmove>
    return 0;
    8000251c:	8526                	mv	a0,s1
    8000251e:	bff9                	j	800024fc <either_copyout+0x32>

0000000080002520 <either_copyin>:
// Copy from either a user address, or kernel address,
// depending on usr_src.
// Returns 0 on success, -1 on error.
int
either_copyin(void *dst, int user_src, uint64 src, uint64 len)
{
    80002520:	7179                	addi	sp,sp,-48
    80002522:	f406                	sd	ra,40(sp)
    80002524:	f022                	sd	s0,32(sp)
    80002526:	ec26                	sd	s1,24(sp)
    80002528:	e84a                	sd	s2,16(sp)
    8000252a:	e44e                	sd	s3,8(sp)
    8000252c:	e052                	sd	s4,0(sp)
    8000252e:	1800                	addi	s0,sp,48
    80002530:	892a                	mv	s2,a0
    80002532:	84ae                	mv	s1,a1
    80002534:	89b2                	mv	s3,a2
    80002536:	8a36                	mv	s4,a3
  struct proc *p = myproc();
    80002538:	fffff097          	auipc	ra,0xfffff
    8000253c:	52e080e7          	jalr	1326(ra) # 80001a66 <myproc>
  if(user_src){
    80002540:	c08d                	beqz	s1,80002562 <either_copyin+0x42>
    return copyin(p->pagetable, dst, src, len);
    80002542:	86d2                	mv	a3,s4
    80002544:	864e                	mv	a2,s3
    80002546:	85ca                	mv	a1,s2
    80002548:	6928                	ld	a0,80(a0)
    8000254a:	fffff097          	auipc	ra,0xfffff
    8000254e:	18e080e7          	jalr	398(ra) # 800016d8 <copyin>
  } else {
    memmove(dst, (char*)src, len);
    return 0;
  }
}
    80002552:	70a2                	ld	ra,40(sp)
    80002554:	7402                	ld	s0,32(sp)
    80002556:	64e2                	ld	s1,24(sp)
    80002558:	6942                	ld	s2,16(sp)
    8000255a:	69a2                	ld	s3,8(sp)
    8000255c:	6a02                	ld	s4,0(sp)
    8000255e:	6145                	addi	sp,sp,48
    80002560:	8082                	ret
    memmove(dst, (char*)src, len);
    80002562:	000a061b          	sext.w	a2,s4
    80002566:	85ce                	mv	a1,s3
    80002568:	854a                	mv	a0,s2
    8000256a:	ffffe097          	auipc	ra,0xffffe
    8000256e:	7be080e7          	jalr	1982(ra) # 80000d28 <memmove>
    return 0;
    80002572:	8526                	mv	a0,s1
    80002574:	bff9                	j	80002552 <either_copyin+0x32>

0000000080002576 <procdump>:
// Print a process listing to console.  For debugging.
// Runs when user types ^P on console.
// No lock to avoid wedging a stuck machine further.
void
procdump(void)
{
    80002576:	715d                	addi	sp,sp,-80
    80002578:	e486                	sd	ra,72(sp)
    8000257a:	e0a2                	sd	s0,64(sp)
    8000257c:	fc26                	sd	s1,56(sp)
    8000257e:	f84a                	sd	s2,48(sp)
    80002580:	f44e                	sd	s3,40(sp)
    80002582:	f052                	sd	s4,32(sp)
    80002584:	ec56                	sd	s5,24(sp)
    80002586:	e85a                	sd	s6,16(sp)
    80002588:	e45e                	sd	s7,8(sp)
    8000258a:	0880                	addi	s0,sp,80
  [ZOMBIE]    "zombie"
  };
  struct proc *p;
  char *state;

  printf("\n");
    8000258c:	00006517          	auipc	a0,0x6
    80002590:	31450513          	addi	a0,a0,788 # 800088a0 <syscalls+0x470>
    80002594:	ffffe097          	auipc	ra,0xffffe
    80002598:	fee080e7          	jalr	-18(ra) # 80000582 <printf>
  for(p = proc; p < &proc[NPROC]; p++){
    8000259c:	0000f497          	auipc	s1,0xf
    800025a0:	28c48493          	addi	s1,s1,652 # 80011828 <proc+0x158>
    800025a4:	00015917          	auipc	s2,0x15
    800025a8:	c8490913          	addi	s2,s2,-892 # 80017228 <bcache+0x140>
    if(p->state == UNUSED)
      continue;
    if(p->state >= 0 && p->state < NELEM(states) && states[p->state])
    800025ac:	4b15                	li	s6,5
      state = states[p->state];
    else
      state = "???";
    800025ae:	00006997          	auipc	s3,0x6
    800025b2:	cba98993          	addi	s3,s3,-838 # 80008268 <digits+0x228>
    printf("%d %s %s", p->pid, state, p->name);
    800025b6:	00006a97          	auipc	s5,0x6
    800025ba:	cbaa8a93          	addi	s5,s5,-838 # 80008270 <digits+0x230>
    printf("\n");
    800025be:	00006a17          	auipc	s4,0x6
    800025c2:	2e2a0a13          	addi	s4,s4,738 # 800088a0 <syscalls+0x470>
    if(p->state >= 0 && p->state < NELEM(states) && states[p->state])
    800025c6:	00006b97          	auipc	s7,0x6
    800025ca:	ce2b8b93          	addi	s7,s7,-798 # 800082a8 <states.0>
    800025ce:	a00d                	j	800025f0 <procdump+0x7a>
    printf("%d %s %s", p->pid, state, p->name);
    800025d0:	ed86a583          	lw	a1,-296(a3)
    800025d4:	8556                	mv	a0,s5
    800025d6:	ffffe097          	auipc	ra,0xffffe
    800025da:	fac080e7          	jalr	-84(ra) # 80000582 <printf>
    printf("\n");
    800025de:	8552                	mv	a0,s4
    800025e0:	ffffe097          	auipc	ra,0xffffe
    800025e4:	fa2080e7          	jalr	-94(ra) # 80000582 <printf>
  for(p = proc; p < &proc[NPROC]; p++){
    800025e8:	16848493          	addi	s1,s1,360
    800025ec:	03248263          	beq	s1,s2,80002610 <procdump+0x9a>
    if(p->state == UNUSED)
    800025f0:	86a6                	mv	a3,s1
    800025f2:	ec04a783          	lw	a5,-320(s1)
    800025f6:	dbed                	beqz	a5,800025e8 <procdump+0x72>
      state = "???";
    800025f8:	864e                	mv	a2,s3
    if(p->state >= 0 && p->state < NELEM(states) && states[p->state])
    800025fa:	fcfb6be3          	bltu	s6,a5,800025d0 <procdump+0x5a>
    800025fe:	02079713          	slli	a4,a5,0x20
    80002602:	01d75793          	srli	a5,a4,0x1d
    80002606:	97de                	add	a5,a5,s7
    80002608:	6390                	ld	a2,0(a5)
    8000260a:	f279                	bnez	a2,800025d0 <procdump+0x5a>
      state = "???";
    8000260c:	864e                	mv	a2,s3
    8000260e:	b7c9                	j	800025d0 <procdump+0x5a>
  }
}
    80002610:	60a6                	ld	ra,72(sp)
    80002612:	6406                	ld	s0,64(sp)
    80002614:	74e2                	ld	s1,56(sp)
    80002616:	7942                	ld	s2,48(sp)
    80002618:	79a2                	ld	s3,40(sp)
    8000261a:	7a02                	ld	s4,32(sp)
    8000261c:	6ae2                	ld	s5,24(sp)
    8000261e:	6b42                	ld	s6,16(sp)
    80002620:	6ba2                	ld	s7,8(sp)
    80002622:	6161                	addi	sp,sp,80
    80002624:	8082                	ret

0000000080002626 <swtch>:
    80002626:	00153023          	sd	ra,0(a0)
    8000262a:	00253423          	sd	sp,8(a0)
    8000262e:	e900                	sd	s0,16(a0)
    80002630:	ed04                	sd	s1,24(a0)
    80002632:	03253023          	sd	s2,32(a0)
    80002636:	03353423          	sd	s3,40(a0)
    8000263a:	03453823          	sd	s4,48(a0)
    8000263e:	03553c23          	sd	s5,56(a0)
    80002642:	05653023          	sd	s6,64(a0)
    80002646:	05753423          	sd	s7,72(a0)
    8000264a:	05853823          	sd	s8,80(a0)
    8000264e:	05953c23          	sd	s9,88(a0)
    80002652:	07a53023          	sd	s10,96(a0)
    80002656:	07b53423          	sd	s11,104(a0)
    8000265a:	0005b083          	ld	ra,0(a1)
    8000265e:	0085b103          	ld	sp,8(a1)
    80002662:	6980                	ld	s0,16(a1)
    80002664:	6d84                	ld	s1,24(a1)
    80002666:	0205b903          	ld	s2,32(a1)
    8000266a:	0285b983          	ld	s3,40(a1)
    8000266e:	0305ba03          	ld	s4,48(a1)
    80002672:	0385ba83          	ld	s5,56(a1)
    80002676:	0405bb03          	ld	s6,64(a1)
    8000267a:	0485bb83          	ld	s7,72(a1)
    8000267e:	0505bc03          	ld	s8,80(a1)
    80002682:	0585bc83          	ld	s9,88(a1)
    80002686:	0605bd03          	ld	s10,96(a1)
    8000268a:	0685bd83          	ld	s11,104(a1)
    8000268e:	8082                	ret

0000000080002690 <trapinit>:

extern int devintr();

void
trapinit(void)
{
    80002690:	1141                	addi	sp,sp,-16
    80002692:	e406                	sd	ra,8(sp)
    80002694:	e022                	sd	s0,0(sp)
    80002696:	0800                	addi	s0,sp,16
  initlock(&tickslock, "time");
    80002698:	00006597          	auipc	a1,0x6
    8000269c:	c4058593          	addi	a1,a1,-960 # 800082d8 <states.0+0x30>
    800026a0:	00015517          	auipc	a0,0x15
    800026a4:	a3050513          	addi	a0,a0,-1488 # 800170d0 <tickslock>
    800026a8:	ffffe097          	auipc	ra,0xffffe
    800026ac:	498080e7          	jalr	1176(ra) # 80000b40 <initlock>
}
    800026b0:	60a2                	ld	ra,8(sp)
    800026b2:	6402                	ld	s0,0(sp)
    800026b4:	0141                	addi	sp,sp,16
    800026b6:	8082                	ret

00000000800026b8 <trapinithart>:

// set up to take exceptions and traps while in the kernel.
void
trapinithart(void)
{
    800026b8:	1141                	addi	sp,sp,-16
    800026ba:	e422                	sd	s0,8(sp)
    800026bc:	0800                	addi	s0,sp,16
  asm volatile("csrw stvec, %0" : : "r" (x));
    800026be:	00003797          	auipc	a5,0x3
    800026c2:	63278793          	addi	a5,a5,1586 # 80005cf0 <kernelvec>
    800026c6:	10579073          	csrw	stvec,a5
  w_stvec((uint64)kernelvec);
}
    800026ca:	6422                	ld	s0,8(sp)
    800026cc:	0141                	addi	sp,sp,16
    800026ce:	8082                	ret

00000000800026d0 <usertrapret>:
//
// return to user space
//
void
usertrapret(void)
{
    800026d0:	1141                	addi	sp,sp,-16
    800026d2:	e406                	sd	ra,8(sp)
    800026d4:	e022                	sd	s0,0(sp)
    800026d6:	0800                	addi	s0,sp,16
  struct proc *p = myproc();
    800026d8:	fffff097          	auipc	ra,0xfffff
    800026dc:	38e080e7          	jalr	910(ra) # 80001a66 <myproc>
  asm volatile("csrr %0, sstatus" : "=r" (x) );
    800026e0:	100027f3          	csrr	a5,sstatus
  w_sstatus(r_sstatus() & ~SSTATUS_SIE);
    800026e4:	9bf5                	andi	a5,a5,-3
  asm volatile("csrw sstatus, %0" : : "r" (x));
    800026e6:	10079073          	csrw	sstatus,a5
  // kerneltrap() to usertrap(), so turn off interrupts until
  // we're back in user space, where usertrap() is correct.
  intr_off();

  // send syscalls, interrupts, and exceptions to trampoline.S
  w_stvec(TRAMPOLINE + (uservec - trampoline));
    800026ea:	00005617          	auipc	a2,0x5
    800026ee:	91660613          	addi	a2,a2,-1770 # 80007000 <_trampoline>
    800026f2:	00005697          	auipc	a3,0x5
    800026f6:	90e68693          	addi	a3,a3,-1778 # 80007000 <_trampoline>
    800026fa:	8e91                	sub	a3,a3,a2
    800026fc:	040007b7          	lui	a5,0x4000
    80002700:	17fd                	addi	a5,a5,-1
    80002702:	07b2                	slli	a5,a5,0xc
    80002704:	96be                	add	a3,a3,a5
  asm volatile("csrw stvec, %0" : : "r" (x));
    80002706:	10569073          	csrw	stvec,a3

  // set up trapframe values that uservec will need when
  // the process next re-enters the kernel.
  p->trapframe->kernel_satp = r_satp();         // kernel page table
    8000270a:	6d38                	ld	a4,88(a0)
  asm volatile("csrr %0, satp" : "=r" (x) );
    8000270c:	180026f3          	csrr	a3,satp
    80002710:	e314                	sd	a3,0(a4)
  p->trapframe->kernel_sp = p->kstack + PGSIZE; // process's kernel stack
    80002712:	6d38                	ld	a4,88(a0)
    80002714:	6134                	ld	a3,64(a0)
    80002716:	6585                	lui	a1,0x1
    80002718:	96ae                	add	a3,a3,a1
    8000271a:	e714                	sd	a3,8(a4)
  p->trapframe->kernel_trap = (uint64)usertrap;
    8000271c:	6d38                	ld	a4,88(a0)
    8000271e:	00000697          	auipc	a3,0x0
    80002722:	13868693          	addi	a3,a3,312 # 80002856 <usertrap>
    80002726:	eb14                	sd	a3,16(a4)
  p->trapframe->kernel_hartid = r_tp();         // hartid for cpuid()
    80002728:	6d38                	ld	a4,88(a0)
  asm volatile("mv %0, tp" : "=r" (x) );
    8000272a:	8692                	mv	a3,tp
    8000272c:	f314                	sd	a3,32(a4)
  asm volatile("csrr %0, sstatus" : "=r" (x) );
    8000272e:	100026f3          	csrr	a3,sstatus
  // set up the registers that trampoline.S's sret will use
  // to get to user space.
  
  // set S Previous Privilege mode to User.
  unsigned long x = r_sstatus();
  x &= ~SSTATUS_SPP; // clear SPP to 0 for user mode
    80002732:	eff6f693          	andi	a3,a3,-257
  x |= SSTATUS_SPIE; // enable interrupts in user mode
    80002736:	0206e693          	ori	a3,a3,32
  asm volatile("csrw sstatus, %0" : : "r" (x));
    8000273a:	10069073          	csrw	sstatus,a3
  w_sstatus(x);

  // set S Exception Program Counter to the saved user pc.
  w_sepc(p->trapframe->epc);
    8000273e:	6d38                	ld	a4,88(a0)
  asm volatile("csrw sepc, %0" : : "r" (x));
    80002740:	6f18                	ld	a4,24(a4)
    80002742:	14171073          	csrw	sepc,a4

  // tell trampoline.S the user page table to switch to.
  uint64 satp = MAKE_SATP(p->pagetable);
    80002746:	692c                	ld	a1,80(a0)
    80002748:	81b1                	srli	a1,a1,0xc

  // jump to trampoline.S at the top of memory, which 
  // switches to the user page table, restores user registers,
  // and switches to user mode with sret.
  uint64 fn = TRAMPOLINE + (userret - trampoline);
    8000274a:	00005717          	auipc	a4,0x5
    8000274e:	94670713          	addi	a4,a4,-1722 # 80007090 <userret>
    80002752:	8f11                	sub	a4,a4,a2
    80002754:	97ba                	add	a5,a5,a4
  ((void (*)(uint64,uint64))fn)(TRAPFRAME, satp);
    80002756:	577d                	li	a4,-1
    80002758:	177e                	slli	a4,a4,0x3f
    8000275a:	8dd9                	or	a1,a1,a4
    8000275c:	02000537          	lui	a0,0x2000
    80002760:	157d                	addi	a0,a0,-1
    80002762:	0536                	slli	a0,a0,0xd
    80002764:	9782                	jalr	a5
}
    80002766:	60a2                	ld	ra,8(sp)
    80002768:	6402                	ld	s0,0(sp)
    8000276a:	0141                	addi	sp,sp,16
    8000276c:	8082                	ret

000000008000276e <clockintr>:
  w_sstatus(sstatus);
}

void
clockintr()
{
    8000276e:	1101                	addi	sp,sp,-32
    80002770:	ec06                	sd	ra,24(sp)
    80002772:	e822                	sd	s0,16(sp)
    80002774:	e426                	sd	s1,8(sp)
    80002776:	1000                	addi	s0,sp,32
  acquire(&tickslock);
    80002778:	00015497          	auipc	s1,0x15
    8000277c:	95848493          	addi	s1,s1,-1704 # 800170d0 <tickslock>
    80002780:	8526                	mv	a0,s1
    80002782:	ffffe097          	auipc	ra,0xffffe
    80002786:	44e080e7          	jalr	1102(ra) # 80000bd0 <acquire>
  ticks++;
    8000278a:	00007517          	auipc	a0,0x7
    8000278e:	8a650513          	addi	a0,a0,-1882 # 80009030 <ticks>
    80002792:	411c                	lw	a5,0(a0)
    80002794:	2785                	addiw	a5,a5,1
    80002796:	c11c                	sw	a5,0(a0)
  wakeup(&ticks);
    80002798:	00000097          	auipc	ra,0x0
    8000279c:	b1a080e7          	jalr	-1254(ra) # 800022b2 <wakeup>
  release(&tickslock);
    800027a0:	8526                	mv	a0,s1
    800027a2:	ffffe097          	auipc	ra,0xffffe
    800027a6:	4e2080e7          	jalr	1250(ra) # 80000c84 <release>
}
    800027aa:	60e2                	ld	ra,24(sp)
    800027ac:	6442                	ld	s0,16(sp)
    800027ae:	64a2                	ld	s1,8(sp)
    800027b0:	6105                	addi	sp,sp,32
    800027b2:	8082                	ret

00000000800027b4 <devintr>:
// returns 2 if timer interrupt,
// 1 if other device,
// 0 if not recognized.
int
devintr()
{
    800027b4:	1101                	addi	sp,sp,-32
    800027b6:	ec06                	sd	ra,24(sp)
    800027b8:	e822                	sd	s0,16(sp)
    800027ba:	e426                	sd	s1,8(sp)
    800027bc:	1000                	addi	s0,sp,32
  asm volatile("csrr %0, scause" : "=r" (x) );
    800027be:	14202773          	csrr	a4,scause
  uint64 scause = r_scause();

  if((scause & 0x8000000000000000L) &&
    800027c2:	00074d63          	bltz	a4,800027dc <devintr+0x28>
    // now allowed to interrupt again.
    if(irq)
      plic_complete(irq);

    return 1;
  } else if(scause == 0x8000000000000001L){
    800027c6:	57fd                	li	a5,-1
    800027c8:	17fe                	slli	a5,a5,0x3f
    800027ca:	0785                	addi	a5,a5,1
    // the SSIP bit in sip.
    w_sip(r_sip() & ~2);

    return 2;
  } else {
    return 0;
    800027cc:	4501                	li	a0,0
  } else if(scause == 0x8000000000000001L){
    800027ce:	06f70363          	beq	a4,a5,80002834 <devintr+0x80>
  }
}
    800027d2:	60e2                	ld	ra,24(sp)
    800027d4:	6442                	ld	s0,16(sp)
    800027d6:	64a2                	ld	s1,8(sp)
    800027d8:	6105                	addi	sp,sp,32
    800027da:	8082                	ret
     (scause & 0xff) == 9){
    800027dc:	0ff77793          	zext.b	a5,a4
  if((scause & 0x8000000000000000L) &&
    800027e0:	46a5                	li	a3,9
    800027e2:	fed792e3          	bne	a5,a3,800027c6 <devintr+0x12>
    int irq = plic_claim();
    800027e6:	00003097          	auipc	ra,0x3
    800027ea:	62e080e7          	jalr	1582(ra) # 80005e14 <plic_claim>
    800027ee:	84aa                	mv	s1,a0
    if(irq == UART0_IRQ){
    800027f0:	47a9                	li	a5,10
    800027f2:	02f50763          	beq	a0,a5,80002820 <devintr+0x6c>
    } else if(irq == VIRTIO0_IRQ){
    800027f6:	4785                	li	a5,1
    800027f8:	02f50963          	beq	a0,a5,8000282a <devintr+0x76>
    return 1;
    800027fc:	4505                	li	a0,1
    } else if(irq){
    800027fe:	d8f1                	beqz	s1,800027d2 <devintr+0x1e>
      printf("unexpected interrupt irq=%d\n", irq);
    80002800:	85a6                	mv	a1,s1
    80002802:	00006517          	auipc	a0,0x6
    80002806:	ade50513          	addi	a0,a0,-1314 # 800082e0 <states.0+0x38>
    8000280a:	ffffe097          	auipc	ra,0xffffe
    8000280e:	d78080e7          	jalr	-648(ra) # 80000582 <printf>
      plic_complete(irq);
    80002812:	8526                	mv	a0,s1
    80002814:	00003097          	auipc	ra,0x3
    80002818:	624080e7          	jalr	1572(ra) # 80005e38 <plic_complete>
    return 1;
    8000281c:	4505                	li	a0,1
    8000281e:	bf55                	j	800027d2 <devintr+0x1e>
      uartintr();
    80002820:	ffffe097          	auipc	ra,0xffffe
    80002824:	174080e7          	jalr	372(ra) # 80000994 <uartintr>
    80002828:	b7ed                	j	80002812 <devintr+0x5e>
      virtio_disk_intr();
    8000282a:	00004097          	auipc	ra,0x4
    8000282e:	aa0080e7          	jalr	-1376(ra) # 800062ca <virtio_disk_intr>
    80002832:	b7c5                	j	80002812 <devintr+0x5e>
    if(cpuid() == 0){
    80002834:	fffff097          	auipc	ra,0xfffff
    80002838:	206080e7          	jalr	518(ra) # 80001a3a <cpuid>
    8000283c:	c901                	beqz	a0,8000284c <devintr+0x98>
  asm volatile("csrr %0, sip" : "=r" (x) );
    8000283e:	144027f3          	csrr	a5,sip
    w_sip(r_sip() & ~2);
    80002842:	9bf5                	andi	a5,a5,-3
  asm volatile("csrw sip, %0" : : "r" (x));
    80002844:	14479073          	csrw	sip,a5
    return 2;
    80002848:	4509                	li	a0,2
    8000284a:	b761                	j	800027d2 <devintr+0x1e>
      clockintr();
    8000284c:	00000097          	auipc	ra,0x0
    80002850:	f22080e7          	jalr	-222(ra) # 8000276e <clockintr>
    80002854:	b7ed                	j	8000283e <devintr+0x8a>

0000000080002856 <usertrap>:
{
    80002856:	1101                	addi	sp,sp,-32
    80002858:	ec06                	sd	ra,24(sp)
    8000285a:	e822                	sd	s0,16(sp)
    8000285c:	e426                	sd	s1,8(sp)
    8000285e:	e04a                	sd	s2,0(sp)
    80002860:	1000                	addi	s0,sp,32
  asm volatile("csrr %0, sstatus" : "=r" (x) );
    80002862:	100027f3          	csrr	a5,sstatus
  if((r_sstatus() & SSTATUS_SPP) != 0)
    80002866:	1007f793          	andi	a5,a5,256
    8000286a:	e3ad                	bnez	a5,800028cc <usertrap+0x76>
  asm volatile("csrw stvec, %0" : : "r" (x));
    8000286c:	00003797          	auipc	a5,0x3
    80002870:	48478793          	addi	a5,a5,1156 # 80005cf0 <kernelvec>
    80002874:	10579073          	csrw	stvec,a5
  struct proc *p = myproc();
    80002878:	fffff097          	auipc	ra,0xfffff
    8000287c:	1ee080e7          	jalr	494(ra) # 80001a66 <myproc>
    80002880:	84aa                	mv	s1,a0
  p->trapframe->epc = r_sepc();
    80002882:	6d3c                	ld	a5,88(a0)
  asm volatile("csrr %0, sepc" : "=r" (x) );
    80002884:	14102773          	csrr	a4,sepc
    80002888:	ef98                	sd	a4,24(a5)
  asm volatile("csrr %0, scause" : "=r" (x) );
    8000288a:	14202773          	csrr	a4,scause
  if(r_scause() == 8){
    8000288e:	47a1                	li	a5,8
    80002890:	04f71c63          	bne	a4,a5,800028e8 <usertrap+0x92>
    if(p->killed)
    80002894:	551c                	lw	a5,40(a0)
    80002896:	e3b9                	bnez	a5,800028dc <usertrap+0x86>
    p->trapframe->epc += 4;
    80002898:	6cb8                	ld	a4,88(s1)
    8000289a:	6f1c                	ld	a5,24(a4)
    8000289c:	0791                	addi	a5,a5,4
    8000289e:	ef1c                	sd	a5,24(a4)
  asm volatile("csrr %0, sstatus" : "=r" (x) );
    800028a0:	100027f3          	csrr	a5,sstatus
  w_sstatus(r_sstatus() | SSTATUS_SIE);
    800028a4:	0027e793          	ori	a5,a5,2
  asm volatile("csrw sstatus, %0" : : "r" (x));
    800028a8:	10079073          	csrw	sstatus,a5
    syscall();
    800028ac:	00000097          	auipc	ra,0x0
    800028b0:	2e0080e7          	jalr	736(ra) # 80002b8c <syscall>
  if(p->killed)
    800028b4:	549c                	lw	a5,40(s1)
    800028b6:	ebc1                	bnez	a5,80002946 <usertrap+0xf0>
  usertrapret();
    800028b8:	00000097          	auipc	ra,0x0
    800028bc:	e18080e7          	jalr	-488(ra) # 800026d0 <usertrapret>
}
    800028c0:	60e2                	ld	ra,24(sp)
    800028c2:	6442                	ld	s0,16(sp)
    800028c4:	64a2                	ld	s1,8(sp)
    800028c6:	6902                	ld	s2,0(sp)
    800028c8:	6105                	addi	sp,sp,32
    800028ca:	8082                	ret
    panic("usertrap: not from user mode");
    800028cc:	00006517          	auipc	a0,0x6
    800028d0:	a3450513          	addi	a0,a0,-1484 # 80008300 <states.0+0x58>
    800028d4:	ffffe097          	auipc	ra,0xffffe
    800028d8:	c64080e7          	jalr	-924(ra) # 80000538 <panic>
      exit(-1);
    800028dc:	557d                	li	a0,-1
    800028de:	00000097          	auipc	ra,0x0
    800028e2:	aa4080e7          	jalr	-1372(ra) # 80002382 <exit>
    800028e6:	bf4d                	j	80002898 <usertrap+0x42>
  } else if((which_dev = devintr()) != 0){
    800028e8:	00000097          	auipc	ra,0x0
    800028ec:	ecc080e7          	jalr	-308(ra) # 800027b4 <devintr>
    800028f0:	892a                	mv	s2,a0
    800028f2:	c501                	beqz	a0,800028fa <usertrap+0xa4>
  if(p->killed)
    800028f4:	549c                	lw	a5,40(s1)
    800028f6:	c3a1                	beqz	a5,80002936 <usertrap+0xe0>
    800028f8:	a815                	j	8000292c <usertrap+0xd6>
  asm volatile("csrr %0, scause" : "=r" (x) );
    800028fa:	142025f3          	csrr	a1,scause
    printf("usertrap(): unexpected scause %p pid=%d\n", r_scause(), p->pid);
    800028fe:	5890                	lw	a2,48(s1)
    80002900:	00006517          	auipc	a0,0x6
    80002904:	a2050513          	addi	a0,a0,-1504 # 80008320 <states.0+0x78>
    80002908:	ffffe097          	auipc	ra,0xffffe
    8000290c:	c7a080e7          	jalr	-902(ra) # 80000582 <printf>
  asm volatile("csrr %0, sepc" : "=r" (x) );
    80002910:	141025f3          	csrr	a1,sepc
  asm volatile("csrr %0, stval" : "=r" (x) );
    80002914:	14302673          	csrr	a2,stval
    printf("            sepc=%p stval=%p\n", r_sepc(), r_stval());
    80002918:	00006517          	auipc	a0,0x6
    8000291c:	a3850513          	addi	a0,a0,-1480 # 80008350 <states.0+0xa8>
    80002920:	ffffe097          	auipc	ra,0xffffe
    80002924:	c62080e7          	jalr	-926(ra) # 80000582 <printf>
    p->killed = 1;
    80002928:	4785                	li	a5,1
    8000292a:	d49c                	sw	a5,40(s1)
    exit(-1);
    8000292c:	557d                	li	a0,-1
    8000292e:	00000097          	auipc	ra,0x0
    80002932:	a54080e7          	jalr	-1452(ra) # 80002382 <exit>
  if(which_dev == 2)
    80002936:	4789                	li	a5,2
    80002938:	f8f910e3          	bne	s2,a5,800028b8 <usertrap+0x62>
    yield();
    8000293c:	fffff097          	auipc	ra,0xfffff
    80002940:	7ae080e7          	jalr	1966(ra) # 800020ea <yield>
    80002944:	bf95                	j	800028b8 <usertrap+0x62>
  int which_dev = 0;
    80002946:	4901                	li	s2,0
    80002948:	b7d5                	j	8000292c <usertrap+0xd6>

000000008000294a <kerneltrap>:
{
    8000294a:	7179                	addi	sp,sp,-48
    8000294c:	f406                	sd	ra,40(sp)
    8000294e:	f022                	sd	s0,32(sp)
    80002950:	ec26                	sd	s1,24(sp)
    80002952:	e84a                	sd	s2,16(sp)
    80002954:	e44e                	sd	s3,8(sp)
    80002956:	1800                	addi	s0,sp,48
  asm volatile("csrr %0, sepc" : "=r" (x) );
    80002958:	14102973          	csrr	s2,sepc
  asm volatile("csrr %0, sstatus" : "=r" (x) );
    8000295c:	100024f3          	csrr	s1,sstatus
  asm volatile("csrr %0, scause" : "=r" (x) );
    80002960:	142029f3          	csrr	s3,scause
  if((sstatus & SSTATUS_SPP) == 0)
    80002964:	1004f793          	andi	a5,s1,256
    80002968:	cb85                	beqz	a5,80002998 <kerneltrap+0x4e>
  asm volatile("csrr %0, sstatus" : "=r" (x) );
    8000296a:	100027f3          	csrr	a5,sstatus
  return (x & SSTATUS_SIE) != 0;
    8000296e:	8b89                	andi	a5,a5,2
  if(intr_get() != 0)
    80002970:	ef85                	bnez	a5,800029a8 <kerneltrap+0x5e>
  if((which_dev = devintr()) == 0){
    80002972:	00000097          	auipc	ra,0x0
    80002976:	e42080e7          	jalr	-446(ra) # 800027b4 <devintr>
    8000297a:	cd1d                	beqz	a0,800029b8 <kerneltrap+0x6e>
  if(which_dev == 2 && myproc() != 0 && myproc()->state == RUNNING)
    8000297c:	4789                	li	a5,2
    8000297e:	06f50a63          	beq	a0,a5,800029f2 <kerneltrap+0xa8>
  asm volatile("csrw sepc, %0" : : "r" (x));
    80002982:	14191073          	csrw	sepc,s2
  asm volatile("csrw sstatus, %0" : : "r" (x));
    80002986:	10049073          	csrw	sstatus,s1
}
    8000298a:	70a2                	ld	ra,40(sp)
    8000298c:	7402                	ld	s0,32(sp)
    8000298e:	64e2                	ld	s1,24(sp)
    80002990:	6942                	ld	s2,16(sp)
    80002992:	69a2                	ld	s3,8(sp)
    80002994:	6145                	addi	sp,sp,48
    80002996:	8082                	ret
    panic("kerneltrap: not from supervisor mode");
    80002998:	00006517          	auipc	a0,0x6
    8000299c:	9d850513          	addi	a0,a0,-1576 # 80008370 <states.0+0xc8>
    800029a0:	ffffe097          	auipc	ra,0xffffe
    800029a4:	b98080e7          	jalr	-1128(ra) # 80000538 <panic>
    panic("kerneltrap: interrupts enabled");
    800029a8:	00006517          	auipc	a0,0x6
    800029ac:	9f050513          	addi	a0,a0,-1552 # 80008398 <states.0+0xf0>
    800029b0:	ffffe097          	auipc	ra,0xffffe
    800029b4:	b88080e7          	jalr	-1144(ra) # 80000538 <panic>
    printf("scause %p\n", scause);
    800029b8:	85ce                	mv	a1,s3
    800029ba:	00006517          	auipc	a0,0x6
    800029be:	9fe50513          	addi	a0,a0,-1538 # 800083b8 <states.0+0x110>
    800029c2:	ffffe097          	auipc	ra,0xffffe
    800029c6:	bc0080e7          	jalr	-1088(ra) # 80000582 <printf>
  asm volatile("csrr %0, sepc" : "=r" (x) );
    800029ca:	141025f3          	csrr	a1,sepc
  asm volatile("csrr %0, stval" : "=r" (x) );
    800029ce:	14302673          	csrr	a2,stval
    printf("sepc=%p stval=%p\n", r_sepc(), r_stval());
    800029d2:	00006517          	auipc	a0,0x6
    800029d6:	9f650513          	addi	a0,a0,-1546 # 800083c8 <states.0+0x120>
    800029da:	ffffe097          	auipc	ra,0xffffe
    800029de:	ba8080e7          	jalr	-1112(ra) # 80000582 <printf>
    panic("kerneltrap");
    800029e2:	00006517          	auipc	a0,0x6
    800029e6:	9fe50513          	addi	a0,a0,-1538 # 800083e0 <states.0+0x138>
    800029ea:	ffffe097          	auipc	ra,0xffffe
    800029ee:	b4e080e7          	jalr	-1202(ra) # 80000538 <panic>
  if(which_dev == 2 && myproc() != 0 && myproc()->state == RUNNING)
    800029f2:	fffff097          	auipc	ra,0xfffff
    800029f6:	074080e7          	jalr	116(ra) # 80001a66 <myproc>
    800029fa:	d541                	beqz	a0,80002982 <kerneltrap+0x38>
    800029fc:	fffff097          	auipc	ra,0xfffff
    80002a00:	06a080e7          	jalr	106(ra) # 80001a66 <myproc>
    80002a04:	4d18                	lw	a4,24(a0)
    80002a06:	4791                	li	a5,4
    80002a08:	f6f71de3          	bne	a4,a5,80002982 <kerneltrap+0x38>
    yield();
    80002a0c:	fffff097          	auipc	ra,0xfffff
    80002a10:	6de080e7          	jalr	1758(ra) # 800020ea <yield>
    80002a14:	b7bd                	j	80002982 <kerneltrap+0x38>

0000000080002a16 <argraw>:
  return strlen(buf);
}

static uint64
argraw(int n)
{
    80002a16:	1101                	addi	sp,sp,-32
    80002a18:	ec06                	sd	ra,24(sp)
    80002a1a:	e822                	sd	s0,16(sp)
    80002a1c:	e426                	sd	s1,8(sp)
    80002a1e:	1000                	addi	s0,sp,32
    80002a20:	84aa                	mv	s1,a0
  struct proc *p = myproc();
    80002a22:	fffff097          	auipc	ra,0xfffff
    80002a26:	044080e7          	jalr	68(ra) # 80001a66 <myproc>
  switch (n) {
    80002a2a:	4795                	li	a5,5
    80002a2c:	0497e163          	bltu	a5,s1,80002a6e <argraw+0x58>
    80002a30:	048a                	slli	s1,s1,0x2
    80002a32:	00006717          	auipc	a4,0x6
    80002a36:	9e670713          	addi	a4,a4,-1562 # 80008418 <states.0+0x170>
    80002a3a:	94ba                	add	s1,s1,a4
    80002a3c:	409c                	lw	a5,0(s1)
    80002a3e:	97ba                	add	a5,a5,a4
    80002a40:	8782                	jr	a5
  case 0:
    return p->trapframe->a0;
    80002a42:	6d3c                	ld	a5,88(a0)
    80002a44:	7ba8                	ld	a0,112(a5)
  case 5:
    return p->trapframe->a5;
  }
  panic("argraw");
  return -1;
}
    80002a46:	60e2                	ld	ra,24(sp)
    80002a48:	6442                	ld	s0,16(sp)
    80002a4a:	64a2                	ld	s1,8(sp)
    80002a4c:	6105                	addi	sp,sp,32
    80002a4e:	8082                	ret
    return p->trapframe->a1;
    80002a50:	6d3c                	ld	a5,88(a0)
    80002a52:	7fa8                	ld	a0,120(a5)
    80002a54:	bfcd                	j	80002a46 <argraw+0x30>
    return p->trapframe->a2;
    80002a56:	6d3c                	ld	a5,88(a0)
    80002a58:	63c8                	ld	a0,128(a5)
    80002a5a:	b7f5                	j	80002a46 <argraw+0x30>
    return p->trapframe->a3;
    80002a5c:	6d3c                	ld	a5,88(a0)
    80002a5e:	67c8                	ld	a0,136(a5)
    80002a60:	b7dd                	j	80002a46 <argraw+0x30>
    return p->trapframe->a4;
    80002a62:	6d3c                	ld	a5,88(a0)
    80002a64:	6bc8                	ld	a0,144(a5)
    80002a66:	b7c5                	j	80002a46 <argraw+0x30>
    return p->trapframe->a5;
    80002a68:	6d3c                	ld	a5,88(a0)
    80002a6a:	6fc8                	ld	a0,152(a5)
    80002a6c:	bfe9                	j	80002a46 <argraw+0x30>
  panic("argraw");
    80002a6e:	00006517          	auipc	a0,0x6
    80002a72:	98250513          	addi	a0,a0,-1662 # 800083f0 <states.0+0x148>
    80002a76:	ffffe097          	auipc	ra,0xffffe
    80002a7a:	ac2080e7          	jalr	-1342(ra) # 80000538 <panic>

0000000080002a7e <fetchaddr>:
{
    80002a7e:	1101                	addi	sp,sp,-32
    80002a80:	ec06                	sd	ra,24(sp)
    80002a82:	e822                	sd	s0,16(sp)
    80002a84:	e426                	sd	s1,8(sp)
    80002a86:	e04a                	sd	s2,0(sp)
    80002a88:	1000                	addi	s0,sp,32
    80002a8a:	84aa                	mv	s1,a0
    80002a8c:	892e                	mv	s2,a1
  struct proc *p = myproc();
    80002a8e:	fffff097          	auipc	ra,0xfffff
    80002a92:	fd8080e7          	jalr	-40(ra) # 80001a66 <myproc>
  if(addr >= p->sz || addr+sizeof(uint64) > p->sz)
    80002a96:	653c                	ld	a5,72(a0)
    80002a98:	02f4f863          	bgeu	s1,a5,80002ac8 <fetchaddr+0x4a>
    80002a9c:	00848713          	addi	a4,s1,8
    80002aa0:	02e7e663          	bltu	a5,a4,80002acc <fetchaddr+0x4e>
  if(copyin(p->pagetable, (char *)ip, addr, sizeof(*ip)) != 0)
    80002aa4:	46a1                	li	a3,8
    80002aa6:	8626                	mv	a2,s1
    80002aa8:	85ca                	mv	a1,s2
    80002aaa:	6928                	ld	a0,80(a0)
    80002aac:	fffff097          	auipc	ra,0xfffff
    80002ab0:	c2c080e7          	jalr	-980(ra) # 800016d8 <copyin>
    80002ab4:	00a03533          	snez	a0,a0
    80002ab8:	40a00533          	neg	a0,a0
}
    80002abc:	60e2                	ld	ra,24(sp)
    80002abe:	6442                	ld	s0,16(sp)
    80002ac0:	64a2                	ld	s1,8(sp)
    80002ac2:	6902                	ld	s2,0(sp)
    80002ac4:	6105                	addi	sp,sp,32
    80002ac6:	8082                	ret
    return -1;
    80002ac8:	557d                	li	a0,-1
    80002aca:	bfcd                	j	80002abc <fetchaddr+0x3e>
    80002acc:	557d                	li	a0,-1
    80002ace:	b7fd                	j	80002abc <fetchaddr+0x3e>

0000000080002ad0 <fetchstr>:
{
    80002ad0:	7179                	addi	sp,sp,-48
    80002ad2:	f406                	sd	ra,40(sp)
    80002ad4:	f022                	sd	s0,32(sp)
    80002ad6:	ec26                	sd	s1,24(sp)
    80002ad8:	e84a                	sd	s2,16(sp)
    80002ada:	e44e                	sd	s3,8(sp)
    80002adc:	1800                	addi	s0,sp,48
    80002ade:	892a                	mv	s2,a0
    80002ae0:	84ae                	mv	s1,a1
    80002ae2:	89b2                	mv	s3,a2
  struct proc *p = myproc();
    80002ae4:	fffff097          	auipc	ra,0xfffff
    80002ae8:	f82080e7          	jalr	-126(ra) # 80001a66 <myproc>
  int err = copyinstr(p->pagetable, buf, addr, max);
    80002aec:	86ce                	mv	a3,s3
    80002aee:	864a                	mv	a2,s2
    80002af0:	85a6                	mv	a1,s1
    80002af2:	6928                	ld	a0,80(a0)
    80002af4:	fffff097          	auipc	ra,0xfffff
    80002af8:	d4c080e7          	jalr	-692(ra) # 80001840 <copyinstr>
  if(err < 0)
    80002afc:	00054763          	bltz	a0,80002b0a <fetchstr+0x3a>
  return strlen(buf);
    80002b00:	8526                	mv	a0,s1
    80002b02:	ffffe097          	auipc	ra,0xffffe
    80002b06:	34e080e7          	jalr	846(ra) # 80000e50 <strlen>
}
    80002b0a:	70a2                	ld	ra,40(sp)
    80002b0c:	7402                	ld	s0,32(sp)
    80002b0e:	64e2                	ld	s1,24(sp)
    80002b10:	6942                	ld	s2,16(sp)
    80002b12:	69a2                	ld	s3,8(sp)
    80002b14:	6145                	addi	sp,sp,48
    80002b16:	8082                	ret

0000000080002b18 <argint>:

// Fetch the nth 32-bit system call argument.
int
argint(int n, int *ip)
{
    80002b18:	1101                	addi	sp,sp,-32
    80002b1a:	ec06                	sd	ra,24(sp)
    80002b1c:	e822                	sd	s0,16(sp)
    80002b1e:	e426                	sd	s1,8(sp)
    80002b20:	1000                	addi	s0,sp,32
    80002b22:	84ae                	mv	s1,a1
  *ip = argraw(n);
    80002b24:	00000097          	auipc	ra,0x0
    80002b28:	ef2080e7          	jalr	-270(ra) # 80002a16 <argraw>
    80002b2c:	c088                	sw	a0,0(s1)
  return 0;
}
    80002b2e:	4501                	li	a0,0
    80002b30:	60e2                	ld	ra,24(sp)
    80002b32:	6442                	ld	s0,16(sp)
    80002b34:	64a2                	ld	s1,8(sp)
    80002b36:	6105                	addi	sp,sp,32
    80002b38:	8082                	ret

0000000080002b3a <argaddr>:
// Retrieve an argument as a pointer.
// Doesn't check for legality, since
// copyin/copyout will do that.
int
argaddr(int n, uint64 *ip)
{
    80002b3a:	1101                	addi	sp,sp,-32
    80002b3c:	ec06                	sd	ra,24(sp)
    80002b3e:	e822                	sd	s0,16(sp)
    80002b40:	e426                	sd	s1,8(sp)
    80002b42:	1000                	addi	s0,sp,32
    80002b44:	84ae                	mv	s1,a1
  *ip = argraw(n);
    80002b46:	00000097          	auipc	ra,0x0
    80002b4a:	ed0080e7          	jalr	-304(ra) # 80002a16 <argraw>
    80002b4e:	e088                	sd	a0,0(s1)
  return 0;
}
    80002b50:	4501                	li	a0,0
    80002b52:	60e2                	ld	ra,24(sp)
    80002b54:	6442                	ld	s0,16(sp)
    80002b56:	64a2                	ld	s1,8(sp)
    80002b58:	6105                	addi	sp,sp,32
    80002b5a:	8082                	ret

0000000080002b5c <argstr>:
// Fetch the nth word-sized system call argument as a null-terminated string.
// Copies into buf, at most max.
// Returns string length if OK (including nul), -1 if error.
int
argstr(int n, char *buf, int max)
{
    80002b5c:	1101                	addi	sp,sp,-32
    80002b5e:	ec06                	sd	ra,24(sp)
    80002b60:	e822                	sd	s0,16(sp)
    80002b62:	e426                	sd	s1,8(sp)
    80002b64:	e04a                	sd	s2,0(sp)
    80002b66:	1000                	addi	s0,sp,32
    80002b68:	84ae                	mv	s1,a1
    80002b6a:	8932                	mv	s2,a2
  *ip = argraw(n);
    80002b6c:	00000097          	auipc	ra,0x0
    80002b70:	eaa080e7          	jalr	-342(ra) # 80002a16 <argraw>
  uint64 addr;
  if(argaddr(n, &addr) < 0)
    return -1;
  return fetchstr(addr, buf, max);
    80002b74:	864a                	mv	a2,s2
    80002b76:	85a6                	mv	a1,s1
    80002b78:	00000097          	auipc	ra,0x0
    80002b7c:	f58080e7          	jalr	-168(ra) # 80002ad0 <fetchstr>
}
    80002b80:	60e2                	ld	ra,24(sp)
    80002b82:	6442                	ld	s0,16(sp)
    80002b84:	64a2                	ld	s1,8(sp)
    80002b86:	6902                	ld	s2,0(sp)
    80002b88:	6105                	addi	sp,sp,32
    80002b8a:	8082                	ret

0000000080002b8c <syscall>:
[SYS_ringbuf] sys_ringbuf,
};

void
syscall(void)
{
    80002b8c:	1101                	addi	sp,sp,-32
    80002b8e:	ec06                	sd	ra,24(sp)
    80002b90:	e822                	sd	s0,16(sp)
    80002b92:	e426                	sd	s1,8(sp)
    80002b94:	e04a                	sd	s2,0(sp)
    80002b96:	1000                	addi	s0,sp,32
  int num;
  struct proc *p = myproc();
    80002b98:	fffff097          	auipc	ra,0xfffff
    80002b9c:	ece080e7          	jalr	-306(ra) # 80001a66 <myproc>
    80002ba0:	84aa                	mv	s1,a0

  num = p->trapframe->a7;
    80002ba2:	05853903          	ld	s2,88(a0)
    80002ba6:	0a893783          	ld	a5,168(s2)
    80002baa:	0007869b          	sext.w	a3,a5
  if(num > 0 && num < NELEM(syscalls) && syscalls[num]) {
    80002bae:	37fd                	addiw	a5,a5,-1
    80002bb0:	4755                	li	a4,21
    80002bb2:	00f76f63          	bltu	a4,a5,80002bd0 <syscall+0x44>
    80002bb6:	00369713          	slli	a4,a3,0x3
    80002bba:	00006797          	auipc	a5,0x6
    80002bbe:	87678793          	addi	a5,a5,-1930 # 80008430 <syscalls>
    80002bc2:	97ba                	add	a5,a5,a4
    80002bc4:	639c                	ld	a5,0(a5)
    80002bc6:	c789                	beqz	a5,80002bd0 <syscall+0x44>
    p->trapframe->a0 = syscalls[num]();
    80002bc8:	9782                	jalr	a5
    80002bca:	06a93823          	sd	a0,112(s2)
    80002bce:	a839                	j	80002bec <syscall+0x60>
  } else {
    printf("%d %s: unknown sys call %d\n",
    80002bd0:	15848613          	addi	a2,s1,344
    80002bd4:	588c                	lw	a1,48(s1)
    80002bd6:	00006517          	auipc	a0,0x6
